ccollections
OrderedDict
p1
((lp2
(lp3
S'1.cz'
p4
a(lp5
S'1.cz'
p6
a(lp7
S'/s\\/([^\\/]+)/'
p8
aS'q'
aaS's/{k}'
p9
aS'iso-8859-2'
p10
aaa(lp11
S'www.123people.com'
p12
a(lp13
S'123people'
p14
a(lp15
S'/s\\/([^\\/]+)/'
p16
aS'search_term'
p17
aaS's/{k}'
p18
aaa(lp19
S'123people.{}'
p20
a(lp21
g14
aaa(lp22
S'so.360.cn'
p23
a(lp24
S'360search'
p25
aS'q'
aS's?q={k}'
p26
a(lp27
S'UTF-8'
p28
aS'gb2312'
p29
aaaa(lp30
S'www.so.com'
p31
a(lp32
g25
aS'q'
aS's?q={k}'
p33
a(lp34
S'UTF-8'
p35
ag29
aaaa(lp36
S'www.abacho.de'
p37
a(lp38
S'Abacho'
p39
aS'q'
aS'suche?q={k}'
p40
aaa(lp41
S'www.abacho.com'
p42
a(lp43
g39
aaa(lp44
S'www.abacho.co.uk'
p45
a(lp46
g39
aaa(lp47
S'www.se.abacho.com'
p48
a(lp49
g39
aaa(lp50
S'www.tr.abacho.com'
p51
a(lp52
g39
aaa(lp53
S'www.abacho.at'
p54
a(lp55
g39
aaa(lp56
S'www.abacho.fr'
p57
a(lp58
g39
aaa(lp59
S'www.abacho.es'
p60
a(lp61
g39
aaa(lp62
S'www.abacho.ch'
p63
a(lp64
g39
aaa(lp65
S'www.abacho.it'
p66
a(lp67
g39
aaa(lp68
S'abcsok.no'
p69
a(lp70
S'ABCs\xc3\xb8k'
p71
aS'q'
aS'?q={k}'
p72
aaa(lp73
S'verden.abcsok.no'
p74
a(lp75
S'ABCs\xc3\xb8k'
p76
aaa(lp77
S'www.acoon.de'
p78
a(lp79
S'Acoon'
p80
aS'begriff'
p81
aS'cgi-bin/search.exe?begriff={k}'
p82
aaa(lp83
S'chercherfr.aguea.com'
p84
a(lp85
S'Aguea'
p86
aS'q'
aS's.py?q={k}'
p87
aaa(lp88
S'alexa.com'
p89
a(lp90
S'Alexa'
p91
aS'q'
aS'search?q={k}'
p92
aaa(lp93
S'search.toolbars.alexa.com'
p94
a(lp95
g91
aaa(lp96
S'rechercher.aliceadsl.fr'
p97
a(lp98
S'Alice Adsl'
p99
aS'qs'
p100
aS'google.pl?qs={k}'
p101
aaa(lp102
S'www.allesklar.de'
p103
a(lp104
S'Allesklar'
p105
aS'words'
p106
aS'?words={k}'
p107
aaa(lp108
S'www.allesklar.at'
p109
a(lp110
g105
aaa(lp111
S'www.allesklar.ch'
p112
a(lp113
g105
aaa(lp114
S'www.alltheweb.com'
p115
a(lp116
S'AllTheWeb'
p117
aS'q'
aS'search?q={k}'
p118
aaa(lp119
S'all.by'
p120
a(lp121
S'All.by'
p122
aS'query'
p123
aS'cgi-bin/search.cgi?mode=by&query={k}'
p124
aaa(lp125
S'www.altavista.com'
p126
a(lp127
S'AltaVista'
p128
aS'q'
aS'web/results?q={k}'
p129
aaa(lp130
S'search.altavista.com'
p131
a(lp132
g128
aaa(lp133
S'listings.altavista.com'
p134
a(lp135
g128
aaa(lp136
S'altavista.de'
p137
a(lp138
g128
aaa(lp139
S'altavista.fr'
p140
a(lp141
g128
aaa(lp142
S'{}.altavista.com'
p143
a(lp144
g128
aaa(lp145
S'be-nl.altavista.com'
p146
a(lp147
g128
aaa(lp148
S'be-fr.altavista.com'
p149
a(lp150
g128
aaa(lp151
S'apollo.lv/portal/search/'
p152
a(lp153
S'Apollo lv'
p154
aS'q'
aS'?cof=FORID%3A11&q={k}&search_where=www'
p155
aaa(lp156
S'apollo7.de'
p157
a(lp158
S'Apollo7'
p159
ag123
aS'a7db/index.php?query={k}&de_sharelook=true&de_bing=true&de_witch=true&de_google=true&de_yahoo=true&de_lycos=true'
p160
aaa(lp161
S'search.aol.com'
p162
a(lp163
S'AOL'
p164
a(lp165
g123
aS'q'
aaS'aol/search?q={k}'
p166
aaa(lp167
S'search.aol.it'
p168
a(lp169
g164
aaa(lp170
S'aolsearch.aol.com'
p171
a(lp172
g164
aaa(lp173
S'www.aolrecherche.aol.fr'
p174
a(lp175
g164
aaa(lp176
S'www.aolrecherches.aol.fr'
p177
a(lp178
g164
aaa(lp179
S'www.aolimages.aol.fr'
p180
a(lp181
g164
aaa(lp182
S'aim.search.aol.com'
p183
a(lp184
g164
aaa(lp185
S'www.recherche.aol.fr'
p186
a(lp187
g164
aaa(lp188
S'recherche.aol.fr'
p189
a(lp190
g164
aaa(lp191
S'find.web.aol.com'
p192
a(lp193
g164
aaa(lp194
S'recherche.aol.ca'
p195
a(lp196
g164
aaa(lp197
S'aolsearch.aol.co.uk'
p198
a(lp199
g164
aaa(lp200
S'search.aol.co.uk'
p201
a(lp202
g164
aaa(lp203
S'aolrecherche.aol.fr'
p204
a(lp205
g164
aaa(lp206
S'sucheaol.aol.de'
p207
a(lp208
g164
aaa(lp209
S'suche.aol.de'
p210
a(lp211
g164
aaa(lp212
S'o2suche.aol.de'
p213
a(lp214
g164
aaa(lp215
S'suche.aolsvc.de'
p216
a(lp217
g164
aaa(lp218
S'aolbusqueda.aol.com.mx'
p219
a(lp220
g164
aaa(lp221
S'alicesuche.aol.de'
p222
a(lp223
g164
aaa(lp224
S'alicesuchet.aol.de'
p225
a(lp226
g164
aaa(lp227
S'suchet2.aol.de'
p228
a(lp229
g164
aaa(lp230
S'search.hp.my.aol.com.au'
p231
a(lp232
g164
aaa(lp233
S'search.hp.my.aol.de'
p234
a(lp235
g164
aaa(lp236
S'search.hp.my.aol.it'
p237
a(lp238
g164
aaa(lp239
S'search-intl.netscape.com'
p240
a(lp241
g164
aaa(lp242
S'de.aolsearch.com'
p243
a(lp244
g164
aS'q'
aS'search?q={k}'
p245
aaa(lp246
S'sm.aport.ru'
p247
a(lp248
S'Aport'
p249
aS'r'
aS'search?r={k}'
p250
aaa(lp251
S'arama.com'
p252
a(lp253
S'Arama'
p254
aS'q'
aS'search.php3?q={k}'
p255
aaa(lp256
S'www.arcor.de'
p257
a(lp258
S'Arcor'
p259
aS'Keywords'
p260
aS'content/searchresult.jsp?Keywords={k}'
p261
aaa(lp262
S'arianna.libero.it'
p263
a(lp264
S'Arianna'
p265
ag123
aS'search/abin/integrata.cgi?query={k}'
p266
aaa(lp267
S'www.arianna.com'
p268
a(lp269
g265
aaa(lp270
S'ask.com'
p271
a(lp272
S'Ask'
p273
a(lp274
S'ask'
p275
aS'q'
aS'searchfor'
p276
aaS'web?q={k}'
p277
aaa(lp278
S'web.ask.com'
p279
a(lp280
g273
aaa(lp281
S'int.ask.com'
p282
a(lp283
g273
aaa(lp284
S'mws.ask.com'
p285
a(lp286
g273
aaa(lp287
S'images.ask.com'
p288
a(lp289
g273
aaa(lp290
S'images.{}.ask.com'
p291
a(lp292
g273
aaa(lp293
S'ask.reference.com'
p294
a(lp295
g273
aaa(lp296
S'www.askkids.com'
p297
a(lp298
g273
aaa(lp299
S'iwon.ask.com'
p300
a(lp301
g273
aaa(lp302
S'www.ask.co.uk'
p303
a(lp304
g273
aaa(lp305
S'{}.ask.com'
p306
a(lp307
g273
aaa(lp308
S'www.qbyrd.com'
p309
a(lp310
g273
aaa(lp311
S'{}.qbyrd.com'
p312
a(lp313
g273
aaa(lp314
S'www.search-results.com'
p315
a(lp316
g273
aaa(lp317
S'www1.search-results.com'
p318
a(lp319
g273
aaa(lp320
S'int.search-results.com'
p321
a(lp322
g273
aaa(lp323
S'{}.search-results.com'
p324
a(lp325
g273
aaa(lp326
S'search.ask.com'
p327
a(lp328
g273
aaa(lp329
S'{}.search.ask.com'
p330
a(lp331
g273
aaa(lp332
S'avira-int.ask.com'
p333
a(lp334
g273
aaa(lp335
S'searchqu.com'
p336
a(lp337
g273
aaa(lp338
S'search.tb.ask.com'
p339
a(lp340
g273
aaa(lp341
S'nortonsafe.search.ask.com'
p342
a(lp343
g273
aaa(lp344
S'safesearch.avira.com'
p345
a(lp346
g273
aaa(lp347
S'avira.search.ask.com'
p348
a(lp349
g273
aaa(lp350
S'int.search.tb.ask.com'
p351
a(lp352
g273
aaa(lp353
S'searchatlas.centrum.cz'
p354
a(lp355
S'Atlas'
p356
aS'q'
aS'?q={k}'
p357
aaa(lp358
S'search.auone.jp'
p359
a(lp360
S'auone'
p361
aS'q'
aS'?q={k}'
p362
aaa(lp363
S'sp-image.search.auone.jp'
p364
a(lp365
S'auone Images'
p366
aS'q'
aS'?q={k}'
p367
aaa(lp368
S'www2.austronaut.at'
p369
a(lp370
S'Austronaut'
p371
aS'q'
aaa(lp372
S'www1.austronaut.at'
p373
a(lp374
g371
aaa(lp375
S'search.babylon.com'
p376
a(lp377
S'Babylon'
p378
a(lp379
S'q'
aS'/\\/web\\/(.*)/'
p380
aaS'?q={k}'
p381
aaa(lp382
S'searchassist.babylon.com'
p383
a(lp384
g378
aaa(lp385
S'www.baidu.com'
p386
a(lp387
S'Baidu'
p388
a(lp389
S'wd'
p390
aS'word'
p391
aS'kw'
p392
aaS's?wd={k}'
p393
a(lp394
S'UTF-8'
p395
ag29
aaaa(lp396
S'www1.baidu.com'
p397
a(lp398
g388
aaa(lp399
S'm.baidu.com'
p400
a(lp401
g388
aaa(lp402
S'www.baidu.co.th'
p403
a(lp404
g388
aaa(lp405
S'zhidao.baidu.com'
p406
a(lp407
g388
aaa(lp408
S'tieba.baidu.com'
p409
a(lp410
g388
aaa(lp411
S'news.baidu.com'
p412
a(lp413
g388
aaa(lp414
S'web.gougou.com'
p415
a(lp416
g388
aS'search'
p417
aS'search?search={k}'
p418
aaa(lp419
S'cgi.search.biglobe.ne.jp'
p420
a(lp421
S'Biglobe'
p422
aS'q'
aS'cgi-bin/search-st?q={k}'
p423
aaa(lp424
S'images.search.biglobe.ne.jp'
p425
a(lp426
S'Biglobe Images'
p427
aS'q'
aS'cgi-bin/search-st?q={k}'
p428
aaa(lp429
S'bing.com'
p430
a(lp431
S'Bing'
p432
a(lp433
S'q'
aS'Q'
aaS'search?q={k}'
p434
aaa(lp435
S'{}.bing.com'
p436
a(lp437
g432
aaa(lp438
S'msnbc.msn.com'
p439
a(lp440
g432
aaa(lp441
S'dizionario.it.msn.com'
p442
a(lp443
g432
aaa(lp444
S'enciclopedia.it.msn.com'
p445
a(lp446
g432
aaa(lp447
S'cc.bingj.com'
p448
a(lp449
g432
aaa(lp450
S'bing.com/images/search'
p451
a(lp452
S'Bing Images'
p453
a(lp454
S'q'
aS'Q'
aaS'?q={k}'
p455
aaa(lp456
S'{}.bing.com/images/search'
p457
a(lp458
S'Bing Images'
p459
aaa(lp460
S'blekko.com'
p461
a(lp462
S'blekko'
p463
a(lp464
S'q'
aS'/\\/ws\\/(.*)/'
p465
aaS'ws/{k}'
p466
aaa(lp467
S'www.blogdigger.com'
p468
a(lp469
S'Blogdigger'
p470
aS'q'
aaa(lp471
S'www.blogpulse.com'
p472
a(lp473
S'Blogpulse'
p474
ag123
aS'search?query={k}'
p475
aaa(lp476
S'search.bluewin.ch'
p477
a(lp478
S'Bluewin'
p479
a(lp480
S'searchTerm'
p481
aS'q'
aaS'v2/index.php?q={k}'
p482
aaa(lp483
S'web.canoe.ca'
p484
a(lp485
S'Canoe.ca'
p486
aS'q'
aS'search?q={k}'
p487
aaa(lp488
S'search.centrum.cz'
p489
a(lp490
S'Centrum'
p491
aS'q'
aS'?q={k}'
p492
aaa(lp493
S'morfeo.centrum.cz'
p494
a(lp495
g491
aaa(lp496
S'www.charter.net'
p497
a(lp498
S'Charter'
p499
aS'q'
aS'search/index.php?q={k}'
p500
aaa(lp501
S'claro-search.com'
p502
a(lp503
S'Claro Search'
p504
aS'q'
aS'?q={k}'
p505
aaa(lp506
S'pesquisa.clix.pt'
p507
a(lp508
S'Clix'
p509
aS'question'
p510
aS'resultado.html?in=Mundial&question={k}'
p511
aaa(lp512
S'search.conduit.com'
p513
a(lp514
S'Conduit.com'
p515
aS'q'
aS'Results.aspx?q={k}'
p516
aaa(lp517
S'images.search.conduit.com'
p518
a(lp519
S'Conduit.com'
p520
aaa(lp521
S'search.comcast.net'
p522
a(lp523
S'Comcast'
p524
aS'q'
aS'?q={k}'
p525
aaa(lp526
S'www.crawler.com'
p527
a(lp528
S'Crawler'
p529
aS'q'
aS'search/results1.aspx?q={k}'
p530
aaa(lp531
S'websearch.cs.com'
p532
a(lp533
S'Compuserve.com (Enhanced by Google)'
p534
ag123
aS'cs/search?query={k}'
p535
aaa(lp536
S'www.cuil.com'
p537
a(lp538
S'Cuil'
p539
aS'q'
aS'search?q={k}'
p540
aaa(lp541
S'daemon-search.com'
p542
a(lp543
S'Daemon search'
p544
aS'q'
aS'explore/web?q={k}'
p545
aaa(lp546
S'my.daemon-search.com'
p547
a(lp548
S'Daemon search'
p549
aaa(lp550
S'www.dasoertliche.de'
p551
a(lp552
S'DasOertliche'
p553
ag392
aaa(lp554
S'www2.dasoertliche.de'
p555
a(lp556
g553
a(lp557
S'ph'
p558
ag392
aaaa(lp559
S'www1.dastelefonbuch.de'
p560
a(lp561
S'DasTelefonbuch'
p562
ag392
aaa(lp563
S'search.daum.net'
p564
a(lp565
S'Daum'
p566
aS'q'
aS'search?q={k}'
p567
aaa(lp568
S'smart.delfi.lv'
p569
a(lp570
S'Delfi lv'
p571
aS'q'
aS'find?q={k}'
p572
aaa(lp573
S'otsing.delfi.ee'
p574
a(lp575
S'Delfi EE'
p576
aS'q'
aS'find?q={k}'
p577
aaa(lp578
S'digg.com'
p579
a(lp580
S'Digg'
p581
aS's'
aS'search?s={k}'
p582
aaa(lp583
S'fr.dir.com'
p584
a(lp585
S'dir.com'
p586
aS'req'
p587
aaa(lp588
S'dmoz.org'
p589
a(lp590
S'dmoz'
p591
ag417
aaa(lp592
S'editors.dmoz.org'
p593
a(lp594
g591
aaa(lp595
S'duckduckgo.com'
p596
a(lp597
S'DuckDuckGo'
p598
aS'q'
aS'?q={k}'
p599
aaa(lp600
S'r.duckduckgo.com'
p601
a(lp602
g598
aaa(lp603
S'search.earthlink.net'
p604
a(lp605
S'Earthlink'
p606
aS'q'
aS'search?q={k}'
p607
aaa(lp608
S'ecosia.org'
p609
a(lp610
S'Ecosia'
p611
aS'q'
aS'search.php?q={k}'
p612
aaa(lp613
S'www.eniro.se'
p614
a(lp615
S'Eniro'
p616
a(lp617
S'q'
aS'search_word'
p618
aaS'query?q={k}'
p619
aaa(lp620
S'www.eurip.com'
p621
a(lp622
S'Eurip'
p623
aS'q'
aS'search/?q={k}'
p624
aaa(lp625
S'www.euroseek.com'
p626
a(lp627
S'Euroseek'
p628
aS'string'
p629
aS'system/search.cgi?string={k}'
p630
aaa(lp631
S'www.everyclick.com'
p632
a(lp633
S'Everyclick'
p634
aS'keyword'
p635
aaa(lp636
S'search.excite.it'
p637
a(lp638
S'Excite'
p639
aS'q'
aS'web/?q={k}'
p640
aaa(lp641
S'search.excite.fr'
p642
a(lp643
g639
aaa(lp644
S'search.excite.de'
p645
a(lp646
g639
aaa(lp647
S'search.excite.co.uk'
p648
a(lp649
g639
aaa(lp650
S'search.excite.es'
p651
a(lp652
g639
aaa(lp653
S'search.excite.nl'
p654
a(lp655
g639
aaa(lp656
S'msxml.excite.com'
p657
a(lp658
g639
aS'/\\/[^\\/]+\\/ws\\/results\\/[^\\/]+\\/([^\\/]+)/'
p659
aaa(lp660
S'www.excite.co.jp'
p661
a(lp662
g639
ag417
aS'search.gw?search={k}'
p663
aS'SHIFT_JIS'
p664
aaa(lp665
S'www.exalead.fr'
p666
a(lp667
S'Exalead'
p668
aS'q'
aS'search/results?q={k}'
p669
aaa(lp670
S'www.exalead.com'
p671
a(lp672
g668
aaa(lp673
S'eo.st'
p674
a(lp675
S'eo'
p676
aS'x_query'
p677
aS'cgi-bin/eolost.cgi?x_query={k}'
p678
aaa(lp679
S'www.facebook.com'
p680
a(lp681
S'Facebook'
p682
aS'q'
aS'search/?q={k}'
p683
aaa(lp684
S'www.fastbrowsersearch.com'
p685
a(lp686
S'Fast Browser Search'
p687
aS'q'
aS'results/results.aspx?q={k}'
p688
aaa(lp689
S'recherche.francite.com'
p690
a(lp691
S'Francite'
p692
aS'name'
p693
aaa(lp694
S'www.findhurtig.dk'
p695
a(lp696
S'Findhurtig'
p697
aS'q'
aS'web?q={k}'
p698
aaa(lp699
S'www.fireball.de'
p700
a(lp701
S'Fireball'
p702
aS'q'
aS'ajax.asp?q={k}'
p703
aaa(lp704
S'www.firstsfind.com'
p705
a(lp706
S'Firstsfind'
p707
aS'qry'
p708
aaa(lp709
S'www.fixsuche.de'
p710
a(lp711
S'Fixsuche'
p712
aS'q'
aaa(lp713
S'www.flix.de'
p714
a(lp715
S'Flix.de'
p716
ag635
aaa(lp717
S'forestle.org'
p718
a(lp719
S'Forestle'
p720
aS'q'
aS'search.php?q={k}'
p721
aaa(lp722
S'{}.forestle.org'
p723
a(lp724
g720
aaa(lp725
S'forestle.mobi'
p726
a(lp727
g720
aaa(lp728
S'search.free.fr'
p729
a(lp730
S'Free'
p731
aS'q'
aaa(lp732
S'search1-2.free.fr'
p733
a(lp734
g731
aaa(lp735
S'search1-1.free.fr'
p736
a(lp737
g731
aaa(lp738
S'search.freecause.com'
p739
a(lp740
S'FreeCause'
p741
aS'p'
aS'?p={k}'
p742
aaa(lp743
S'suche.freenet.de'
p744
a(lp745
S'Freenet'
p746
a(lp747
g123
ag260
aaS'suche/?query={k}'
p748
aaa(lp749
S'friendfeed.com'
p750
a(lp751
S'FriendFeed'
p752
aS'q'
aS'search?q={k}'
p753
aaa(lp754
S'gais.cs.ccu.edu.tw'
p755
a(lp756
S'GAIS'
p757
aS'q'
aS'search.php?q={k}'
p758
aaa(lp759
S'search.genieo.com'
p760
a(lp761
S'Genieo'
p762
aS'q'
aS'&q={k}'
p763
aaa(lp764
S'geona.net'
p765
a(lp766
S'Geona'
p767
aS'q'
aS'search?q={k}'
p768
aaa(lp769
S'www.gigablast.com'
p770
a(lp771
S'Gigablast'
p772
aS'q'
aS'search?q={k}'
p773
aaa(lp774
S'dir.gigablast.com'
p775
a(lp776
S'Gigablast (Directory)'
p777
aS'q'
aaa(lp778
S'www.gnadenmeer.de'
p779
a(lp780
S'Gnadenmeer'
p781
ag635
aaa(lp782
S'www.gomeo.com'
p783
a(lp784
S'Gomeo'
p785
a(lp786
g260
aS'/\\/search\\/([^\\/]+)/'
p787
aaS'/search/{k}'
p788
aaa(lp789
S'search.goo.ne.jp'
p790
a(lp791
S'goo'
p792
aS'MT'
p793
aS'web.jsp?MT={k}'
p794
aaa(lp795
S'ocnsearch.goo.ne.jp'
p796
a(lp797
g792
aaa(lp798
S'google.com'
p799
a(lp800
S'Google'
p801
aS'q'
aS'search?q={k}'
p802
aaa(lp803
S'google.{}'
p804
a(lp805
g801
aaa(lp806
S'www2.google.com'
p807
a(lp808
g801
aaa(lp809
S'ipv6.google.com'
p810
a(lp811
g801
aaa(lp812
S'go.google.com'
p813
a(lp814
g801
aaa(lp815
S'wwwgoogle.com'
p816
a(lp817
g801
aaa(lp818
S'wwwgoogle.{}'
p819
a(lp820
g801
aaa(lp821
S'gogole.com'
p822
a(lp823
g801
aaa(lp824
S'gogole.{}'
p825
a(lp826
g801
aaa(lp827
S'gppgle.com'
p828
a(lp829
g801
aaa(lp830
S'gppgle.{}'
p831
a(lp832
g801
aaa(lp833
S'googel.com'
p834
a(lp835
g801
aaa(lp836
S'googel.{}'
p837
a(lp838
g801
aaa(lp839
S'search.avg.com'
p840
a(lp841
g801
aaa(lp842
S'isearch.avg.com'
p843
a(lp844
g801
aaa(lp845
S'www.cnn.com'
p846
a(lp847
g801
ag123
aaa(lp848
S'darkoogle.com'
p849
a(lp850
g801
aaa(lp851
S'search.darkoogle.com'
p852
a(lp853
g801
aaa(lp854
S'search.foxtab.com'
p855
a(lp856
g801
aaa(lp857
S'www.gooofullsearch.com'
p858
a(lp859
g801
ag260
aaa(lp860
S'search.hiyo.com'
p861
a(lp862
g801
aaa(lp863
S'search.incredimail.com'
p864
a(lp865
g801
aaa(lp866
S'search1.incredimail.com'
p867
a(lp868
g801
aaa(lp869
S'search2.incredimail.com'
p870
a(lp871
g801
aaa(lp872
S'search3.incredimail.com'
p873
a(lp874
g801
aaa(lp875
S'search4.incredimail.com'
p876
a(lp877
g801
aaa(lp878
S'search.sweetim.com'
p879
a(lp880
g801
aaa(lp881
S'www.fastweb.it'
p882
a(lp883
g801
aaa(lp884
S'search.juno.com'
p885
a(lp886
g801
ag123
aaa(lp887
S'find.tdc.dk'
p888
a(lp889
g801
aaa(lp890
S'it.luna.tv'
p891
a(lp892
g801
aaa(lp893
S'searchresults.verizon.com'
p894
a(lp895
g801
aaa(lp896
S'search.walla.co.il'
p897
a(lp898
g801
aaa(lp899
S'search.alot.com'
p900
a(lp901
g801
aaa(lp902
S'suche.gmx.net'
p903
a(lp904
g801
aS'q'
aS'web?q={k}'
p905
aaa(lp906
S'search.incredibar.com'
p907
a(lp908
g801
aS'q'
aS'search.php?q={k}'
p909
aaa(lp910
S'www.delta-search.com'
p911
a(lp912
g801
aS'q'
aaa(lp913
S'www1.delta-search.com'
p914
a(lp915
g801
aS'q'
aaa(lp916
S'search.1und1.de'
p917
a(lp918
g801
aS'q'
aS'web?q={k}'
p919
aaa(lp920
S'suche.1und1.de'
p921
a(lp922
g801
aS'q'
aS'web?q={k}'
p923
aaa(lp924
S'search.zonealarm.com'
p925
a(lp926
g801
aaa(lp927
S'start.lenovo.com'
p928
a(lp929
g801
aS'q'
aS'search/index.php?q={k}'
p930
aaa(lp931
S'wow.com'
p932
a(lp933
g801
aaa(lp934
S'{}.wow.com'
p935
a(lp936
g801
aaa(lp937
S'search.leonardo.it'
p938
a(lp939
g801
aaa(lp940
S'www.optuszoo.com.au'
p941
a(lp942
g801
aaa(lp943
S'search.dolphin-browser.jp'
p944
a(lp945
g801
aaa(lp946
S'search.smt.docomo.ne.jp'
p947
a(lp948
g801
ag793
aaa(lp949
S'image.search.smt.docomo.ne.jp'
p950
a(lp951
g801
ag793
aaa(lp952
S'gfsoso.com'
p953
a(lp954
g801
aS'q'
aaa(lp955
S'searches.safehomepage.com'
p956
a(lp957
g801
aS'q'
aaa(lp958
S'searches.f-secure.com'
p959
a(lp960
g801
ag123
aS'search?query={k}'
p961
aaa(lp962
S'startgoogle.startpagina.nl'
p963
a(lp964
S'Startpagina (Google)'
p965
aS'q'
aS'?q={k}'
p966
aaa(lp967
S'webcache.googleusercontent.com'
p968
a(lp969
g801
aS'/\\/search\\?q=cache:[A-Za-z0-9]+:[^+]+([^&]+)/'
p970
aS'search?q={k}'
p971
aaa(lp972
S'encrypted.google.com'
p973
a(lp974
S'Google SSL'
p975
aS'q'
aS'search?q={k}'
p976
aaa(lp977
S'blogsearch.google.com'
p978
a(lp979
S'Google Blogsearch'
p980
aS'q'
aS'blogsearch?q={k}'
p981
aaa(lp982
S'blogsearch.google.{}'
p983
a(lp984
S'Google Blogsearch'
p985
aaa(lp986
S'google.com/cse'
p987
a(lp988
S'Google Custom Search'
p989
a(lp990
S'q'
ag123
aaaa(lp991
S'google.{}/cse'
p992
a(lp993
S'Google Custom Search'
p994
aaa(lp995
S'google.com/custom'
p996
a(lp997
S'Google Custom Search'
p998
aaa(lp999
S'google.{}/custom'
p1000
a(lp1001
S'Google Custom Search'
p1002
aaa(lp1003
S'translate.google.com'
p1004
a(lp1005
S'Google Translations'
p1006
aS'q'
aaa(lp1007
S'images.google.com'
p1008
a(lp1009
S'Google Images'
p1010
aS'q'
aS'images?q={k}'
p1011
aaa(lp1012
S'images.google.{}'
p1013
a(lp1014
S'Google Images'
p1015
aaa(lp1016
S'maps.google.com'
p1017
a(lp1018
S'Google Maps'
p1019
aS'q'
aS'maps?q={k}'
p1020
aaa(lp1021
S'maps.google.{}'
p1022
a(lp1023
S'Google Maps'
p1024
aaa(lp1025
S'news.google.com'
p1026
a(lp1027
S'Google News'
p1028
aS'q'
aaa(lp1029
S'news.google.{}'
p1030
a(lp1031
S'Google News'
p1032
aaa(lp1033
S'google.com/products'
p1034
a(lp1035
S'Google Shopping'
p1036
aS'q'
aS'?q={k}&tbm=shop'
p1037
aaa(lp1038
S'google.{}/products'
p1039
a(lp1040
S'Google Shopping'
p1041
aaa(lp1042
S'googlesyndicatedsearch.com'
p1043
a(lp1044
S'Google syndicated search'
p1045
aS'q'
aaa(lp1046
S'video.google.com'
p1047
a(lp1048
S'Google Video'
p1049
aS'q'
aS'search?q={k}&tbm=vid'
p1050
aaa(lp1051
S'scholar.google.com'
p1052
a(lp1053
S'Google Scholar'
p1054
aS'q'
aS'scholar?q={k}'
p1055
aaa(lp1056
S'scholar.google.{}'
p1057
a(lp1058
S'Google Scholar'
p1059
aaa(lp1060
S'www.goyellow.de'
p1061
a(lp1062
S'GoYellow.de'
p1063
aS'MDN'
p1064
aaa(lp1065
S'www.gulesider.no'
p1066
a(lp1067
S'Gule Sider'
p1068
aS'q'
aaa(lp1069
S'www.haosou.com'
p1070
a(lp1071
S'Haosou'
p1072
aS'q'
aS's?q={k}'
p1073
aaa(lp1074
S'www.highbeam.com'
p1075
a(lp1076
S'HighBeam'
p1077
aS'q'
aS'Search.aspx?q={k}'
p1078
aaa(lp1079
S'req.hit-parade.com'
p1080
a(lp1081
S'Hit-Parade'
p1082
aS'p7'
p1083
aS'general/recherche.asp?p7={k}'
p1084
aaa(lp1085
S'class.hit-parade.com'
p1086
a(lp1087
S'Hit-Parade'
p1088
aaa(lp1089
S'www.hit-parade.com'
p1090
a(lp1091
S'Hit-Parade'
p1092
aaa(lp1093
S'holmes.ge'
p1094
a(lp1095
S'Holmes'
p1096
aS'q'
aS'search.htm?q={k}'
p1097
aaa(lp1098
S'www.hooseek.com'
p1099
a(lp1100
S'Hooseek'
p1101
aS'recherche'
p1102
aS'web?recherche={k}'
p1103
aaa(lp1104
S'www.hotbot.com'
p1105
a(lp1106
S'Hotbot'
p1107
ag123
aaa(lp1108
S'blogs.icerocket.com'
p1109
a(lp1110
S'Icerocket'
p1111
aS'q'
aS'search?q={k}'
p1112
aaa(lp1113
S'www.icq.com'
p1114
a(lp1115
S'ICQ'
p1116
aS'q'
aS'search/results.php?q={k}'
p1117
aaa(lp1118
S'search.icq.com'
p1119
a(lp1120
g1116
aaa(lp1121
S'www.ilse.nl'
p1122
a(lp1123
S'Ilse NL'
p1124
aS'search_for'
p1125
aS'?search_for={k}'
p1126
aaa(lp1127
S'search.imesh.com'
p1128
a(lp1129
S'iMesh'
p1130
a(lp1131
S'q'
aS'si'
p1132
aaS'web?q={k}'
p1133
aaa(lp1134
S'www2.inbox.com'
p1135
a(lp1136
S'Inbox'
p1137
aS'q'
aS'search/results1.aspx?q={k}'
p1138
aaa(lp1139
S'infospace.com'
p1140
a(lp1141
S'InfoSpace'
p1142
aS'q'
aS'/search/web?q={k}'
p1143
aaa(lp1144
S'dogpile.com'
p1145
a(lp1146
g1142
aaa(lp1147
S'tattoodle.com'
p1148
a(lp1149
g1142
aaa(lp1150
S'metacrawler.com'
p1151
a(lp1152
g1142
aaa(lp1153
S'webfetch.com'
p1154
a(lp1155
g1142
aaa(lp1156
S'webcrawler.com'
p1157
a(lp1158
g1142
aaa(lp1159
S'search.kiwee.com'
p1160
a(lp1161
g1142
aaa(lp1162
S'searches.vi-view.com'
p1163
a(lp1164
g1142
aaa(lp1165
S'search.webssearches.com'
p1166
a(lp1167
g1142
aaa(lp1168
S'search.fbdownloader.com'
p1169
a(lp1170
g1142
aaa(lp1171
S'searches3.globososo.com'
p1172
a(lp1173
g1142
aaa(lp1174
S'wsdsold.infospace.com'
p1175
a(lp1176
g1142
aS'/\\/[^\\/]+\\/ws\\/results\\/[^\\/]+\\/([^\\/]+)/'
p1177
aS'pemonitorhosted/ws/results/Web/{k}/1/417/TopNavigation/Source/'
p1178
aaa(lp1179
S'isearch.babylon.com'
p1180
a(lp1181
g1142
aS'q'
aaa(lp1182
S'start.facemoods.com'
p1183
a(lp1184
g1142
aS's'
aaa(lp1185
S'start.funmoods.com'
p1186
a(lp1187
g1142
aS'q'
aaa(lp1188
S'search.magentic.com'
p1189
a(lp1190
g1142
aS'q'
aaa(lp1191
S'search.searchcompletion.com'
p1192
a(lp1193
g1142
aS'q'
aaa(lp1194
S'www.searchmobileonline.com'
p1195
a(lp1196
g1142
aS'q'
aaa(lp1197
S'isearch.glarysoft.com'
p1198
a(lp1199
g1142
aS'q'
aaa(lp1200
S'search.chatzum.com'
p1201
a(lp1202
g1142
aS'q'
aaa(lp1203
S'home.speedbit.com'
p1204
a(lp1205
g1142
aS'q'
aaa(lp1206
S'search.b1.org'
p1207
a(lp1208
g1142
aS'q'
aaa(lp1209
S'searchya.com'
p1210
a(lp1211
g1142
aS'q'
aaa(lp1212
S'search.handycafe.com'
p1213
a(lp1214
g1142
aS'q'
aaa(lp1215
S'search.v9.com'
p1216
a(lp1217
g1142
aS'q'
aaa(lp1218
S'search.iminent.com'
p1219
a(lp1220
g1142
aS'q'
aaa(lp1221
S'utorrent.inspsearch.com'
p1222
a(lp1223
g1142
aS'q'
aaa(lp1224
S'www.google.interia.pl'
p1225
a(lp1226
S'Interia'
p1227
aS'q'
aS'szukaj?q={k}'
p1228
aaa(lp1229
S'start.iplay.com'
p1230
a(lp1231
S'I-play'
p1232
aS'q'
aS'searchresults.aspx?q={k}'
p1233
aaa(lp1234
S'ixquick.com'
p1235
a(lp1236
S'Ixquick'
p1237
ag123
aaa(lp1238
S'www.eu.ixquick.com'
p1239
a(lp1240
g1237
aaa(lp1241
S'ixquick.de'
p1242
a(lp1243
g1237
aaa(lp1244
S'www.ixquick.de'
p1245
a(lp1246
g1237
aaa(lp1247
S'us.ixquick.com'
p1248
a(lp1249
g1237
aaa(lp1250
S's1.us.ixquick.com'
p1251
a(lp1252
g1237
aaa(lp1253
S's2.us.ixquick.com'
p1254
a(lp1255
g1237
aaa(lp1256
S's3.us.ixquick.com'
p1257
a(lp1258
g1237
aaa(lp1259
S's4.us.ixquick.com'
p1260
a(lp1261
g1237
aaa(lp1262
S's5.us.ixquick.com'
p1263
a(lp1264
g1237
aaa(lp1265
S'eu.ixquick.com'
p1266
a(lp1267
g1237
aaa(lp1268
S's8-eu.ixquick.com'
p1269
a(lp1270
g1237
aaa(lp1271
S's1-eu.ixquick.de'
p1272
a(lp1273
g1237
aaa(lp1274
S's2-eu4.ixquick.com'
p1275
a(lp1276
g1237
aaa(lp1277
S's5-eu4.ixquick.com'
p1278
a(lp1279
g1237
aaa(lp1280
S'jyxo.1188.cz'
p1281
a(lp1282
S'Jyxo'
p1283
aS'q'
aS's?q={k}'
p1284
aaa(lp1285
S'www.jungle-spider.de'
p1286
a(lp1287
S'Jungle Spider'
p1288
aS'q'
aaa(lp1289
S'junglekey.com'
p1290
a(lp1291
S'Jungle Key'
p1292
ag123
aS'search.php?query={k}&type=web&lang=en'
p1293
aaa(lp1294
S'junglekey.fr'
p1295
a(lp1296
S'Jungle Key'
p1297
aaa(lp1298
S'k9safesearch.com'
p1299
a(lp1300
S'K9 Safe Search'
p1301
aS'q'
aS'search.jsp?q={k}'
p1302
aaa(lp1303
S'www.kataweb.it'
p1304
a(lp1305
S'Kataweb'
p1306
aS'q'
aaa(lp1307
S'www.kvasir.no'
p1308
a(lp1309
S'Kvasir'
p1310
aS'q'
aS'alle?q={k}'
p1311
aaa(lp1312
S'www.latne.lv'
p1313
a(lp1314
S'Latne'
p1315
aS'q'
aS'siets.php?q={k}'
p1316
aaa(lp1317
S'www.toile.com'
p1318
a(lp1319
S'La Toile Du Qu\xc3\xa9bec (Google)'
p1320
aS'q'
aS'search?q={k}'
p1321
aaa(lp1322
S'web.toile.com'
p1323
a(lp1324
S'La Toile Du Qu\xc3\xa9bec (Google)'
p1325
aaa(lp1326
S'www.lookany.com'
p1327
a(lp1328
S'LookAny'
p1329
aS'/(?:search|images|videos)\\/([^\\/]+)/'
p1330
aaa(lp1331
S'www.looksmart.com'
p1332
a(lp1333
S'Looksmart'
p1334
aS'key'
p1335
aaa(lp1336
S'lo.st'
p1337
a(lp1338
S'Lo.st'
p1339
ag677
aS'cgi-bin/eolost.cgi?x_query={k}'
p1340
aaa(lp1341
S'search.lycos.com'
p1342
a(lp1343
S'Lycos'
p1344
ag123
aS'?query={k}'
p1345
aaa(lp1346
S'lycos.{}'
p1347
a(lp1348
g1344
aaa(lp1349
S'www.maailm.com'
p1350
a(lp1351
S'maailm.com'
p1352
aS'tekst'
p1353
aaa(lp1354
S'go.mail.ru'
p1355
a(lp1356
S'Mailru'
p1357
aS'q'
aS'search?rch=e&q={k}'
p1358
a(lp1359
S'UTF-8'
p1360
aS'windows-1251'
p1361
aaaa(lp1362
S'www.mamma.com'
p1363
a(lp1364
S'Mamma'
p1365
ag123
aS'result.php?q={k}'
p1366
aaa(lp1367
S'mamma75.mamma.com'
p1368
a(lp1369
g1365
aaa(lp1370
S'meta.ua'
p1371
a(lp1372
S'Meta.ua'
p1373
aS'q'
aS'search.asp?q={k}'
p1374
aaa(lp1375
S's1.metacrawler.de'
p1376
a(lp1377
S'MetaCrawler DE'
p1378
ag708
aS'?qry={k}'
p1379
aaa(lp1380
S's2.metacrawler.de'
p1381
a(lp1382
S'MetaCrawler DE'
p1383
aaa(lp1384
S's3.metacrawler.de'
p1385
a(lp1386
S'MetaCrawler DE'
p1387
aaa(lp1388
S'meta.rrzn.uni-hannover.de'
p1389
a(lp1390
S'Metager'
p1391
aS'eingabe'
p1392
aS'meta/cgi-bin/meta.ger1?eingabe={k}'
p1393
aaa(lp1394
S'www.metager.de'
p1395
a(lp1396
g1391
aaa(lp1397
S'metager.de'
p1398
a(lp1399
g1391
aaa(lp1400
S'metager2.de'
p1401
a(lp1402
S'Metager2'
p1403
aS'q'
aS'search/index.php?q={k}'
p1404
aaa(lp1405
S'www.meinestadt.de'
p1406
a(lp1407
S'Meinestadt.de'
p1408
ag106
aaa(lp1409
S'www.mister-wong.com'
p1410
a(lp1411
S'Mister Wong'
p1412
aS'keywords'
p1413
aS'search/?keywords={k}'
p1414
aaa(lp1415
S'www.mister-wong.de'
p1416
a(lp1417
S'Mister Wong'
p1418
aaa(lp1419
S'www.monstercrawler.com'
p1420
a(lp1421
S'Monstercrawler'
p1422
ag708
aaa(lp1423
S'www.mozbot.fr'
p1424
a(lp1425
S'mozbot'
p1426
aS'q'
aS'results.php?q={k}'
p1427
aaa(lp1428
S'www.mozbot.co.uk'
p1429
a(lp1430
g1426
aaa(lp1431
S'www.mozbot.com'
p1432
a(lp1433
g1426
aaa(lp1434
S'ariadna.elmundo.es'
p1435
a(lp1436
S'El Mundo'
p1437
aS'q'
aaa(lp1438
S'searchservice.myspace.com'
p1439
a(lp1440
S'MySpace'
p1441
ag708
aS'index.cfm?fuseaction=sitesearch.results&type=Web&qry={k}'
p1442
aaa(lp1443
S'www.mysearch.com'
p1444
a(lp1445
S'MyWebSearch'
p1446
a(lp1447
g276
aS'searchFor'
p1448
aaS'search/Ajmain.jhtml?searchfor={k}'
p1449
aaa(lp1450
S'ms114.mysearch.com'
p1451
a(lp1452
g1446
aaa(lp1453
S'ms146.mysearch.com'
p1454
a(lp1455
g1446
aaa(lp1456
S'kf.mysearch.myway.com'
p1457
a(lp1458
g1446
aaa(lp1459
S'ki.mysearch.myway.com'
p1460
a(lp1461
g1446
aaa(lp1462
S'search.myway.com'
p1463
a(lp1464
g1446
aaa(lp1465
S'search.mywebsearch.com'
p1466
a(lp1467
g1446
aaa(lp1468
S'www.najdi.si'
p1469
a(lp1470
S'Najdi.si'
p1471
aS'q'
aS'search.jsp?q={k}'
p1472
aaa(lp1473
S'search.nate.com'
p1474
a(lp1475
S'Nate'
p1476
aS'q'
aS'search/all.html?q={k}'
p1477
aS'EUC-KR'
p1478
aaa(lp1479
S'search.naver.com'
p1480
a(lp1481
S'Naver'
p1482
ag123
aS'search.naver?query={k}'
p1483
aaa(lp1484
S'ko.search.need2find.com'
p1485
a(lp1486
S'Needtofind'
p1487
ag276
aS'search/AJmain.jhtml?searchfor={k}'
p1488
aaa(lp1489
S'www.neti.ee'
p1490
a(lp1491
S'Neti'
p1492
ag123
aS'cgi-bin/otsing?query={k}'
p1493
aS'iso-8859-1'
p1494
aaa(lp1495
S'search.nifty.com'
p1496
a(lp1497
S'Nifty'
p1498
a(lp1499
S'q'
aS'Text'
p1500
aaS'websearch/search?q={k}'
p1501
aaa(lp1502
S'search.azby.fmworld.net'
p1503
a(lp1504
g1498
aaa(lp1505
S'videosearch.nifty.com'
p1506
a(lp1507
S'Nifty Videos'
p1508
ag392
aS'search?kw={k}'
p1509
aaa(lp1510
S'nigma.ru'
p1511
a(lp1512
S'Nigma'
p1513
aS's'
aS'index.php?s={k}'
p1514
aaa(lp1515
S'szukaj.onet.pl'
p1516
a(lp1517
S'Onet.pl'
p1518
aS'qt'
p1519
aS'query.html?qt={k}'
p1520
aaa(lp1521
S'online.no'
p1522
a(lp1523
S'Online.no'
p1524
aS'q'
aS'google/index.jsp?q={k}'
p1525
aaa(lp1526
S'www.1881.no'
p1527
a(lp1528
S'Opplysningen 1881'
p1529
aS'Query'
p1530
aS'Multi/?Query={k}'
p1531
aaa(lp1532
S'busca.orange.es'
p1533
a(lp1534
S'Orange'
p1535
aS'q'
aS'search?q={k}'
p1536
aaa(lp1537
S'lemoteur.ke.voila.fr'
p1538
a(lp1539
g1535
ag392
aS'?kw={k}'
p1540
aaa(lp1541
S'www.paperball.de'
p1542
a(lp1543
S'Paperball'
p1544
aS'q'
aS'suche/s/?q={k}'
p1545
aaa(lp1546
S'search.peoplepc.com'
p1547
a(lp1548
S'PeoplePC'
p1549
aS'q'
aS'search?q={k}'
p1550
aaa(lp1551
S'extern.peoplecheck.de'
p1552
a(lp1553
S'PeopleCheck'
p1554
aS'q'
aS'link.php?q={k}'
p1555
aaa(lp1556
S'www.picsearch.com'
p1557
a(lp1558
S'Picsearch'
p1559
aS'q'
aS'index.cgi?q={k}'
p1560
aaa(lp1561
S'www.plazoo.com'
p1562
a(lp1563
S'Plazoo'
p1564
aS'q'
aaa(lp1565
S'plusnetwork.com'
p1566
a(lp1567
S'PlusNetwork'
p1568
aS'q'
aS'?q={k}'
p1569
aaa(lp1570
S'poisk.ru'
p1571
a(lp1572
S'Poisk.Ru'
p1573
aS'text'
p1574
aS'cgi-bin/poisk?text={k}'
p1575
aS'windows-1251'
p1576
aaa(lp1577
S'search.qip.ru'
p1578
a(lp1579
S'qip.ru'
p1580
ag123
aS'search?query={k}'
p1581
aaa(lp1582
S'www.qualigo.at'
p1583
a(lp1584
S'Qualigo'
p1585
aS'q'
aaa(lp1586
S'www.qualigo.ch'
p1587
a(lp1588
g1585
aaa(lp1589
S'www.qualigo.de'
p1590
a(lp1591
g1585
aaa(lp1592
S'www.qualigo.nl'
p1593
a(lp1594
g1585
aaa(lp1595
S'www.qwant.com'
p1596
a(lp1597
S'Qwant'
p1598
aS'q'
aaa(lp1599
S'websearch.rakuten.co.jp'
p1600
a(lp1601
S'Rakuten'
p1602
ag1519
aS'WebIS?qt={k}'
p1603
aaa(lp1604
S'nova.rambler.ru'
p1605
a(lp1606
S'Rambler'
p1607
a(lp1608
g123
ag106
aaS'search?query={k}'
p1609
aaa(lp1610
S'rpmfind.net'
p1611
a(lp1612
S'rpmfind'
p1613
ag123
aS'linux/rpm2html/search.php?query={k}'
p1614
aaa(lp1615
S'fr2.rpmfind.net'
p1616
a(lp1617
g1613
aaa(lp1618
S'search.rr.com'
p1619
a(lp1620
S'Road Runner'
p1621
aS'q'
aS'?q={k}'
p1622
aaa(lp1623
S'pesquisa.sapo.pt'
p1624
a(lp1625
S'Sapo'
p1626
aS'q'
aS'?q={k}'
p1627
aaa(lp1628
S'scour.com'
p1629
a(lp1630
S'Scour.com'
p1631
aS'/search\\/[^\\/]+\\/(.*)/'
p1632
aS'search/web/{k}'
p1633
aaa(lp1634
S'www.search.com'
p1635
a(lp1636
S'Search.com'
p1637
aS'q'
aS'search?q={k}'
p1638
aaa(lp1639
S'www.search.ch'
p1640
a(lp1641
S'Search.ch'
p1642
aS'q'
aS'?q={k}'
p1643
aaa(lp1644
S'searchalot.com'
p1645
a(lp1646
S'Searchalot'
p1647
aS'q'
aS'?q={k}'
p1648
aaa(lp1649
S'www.searchcanvas.com'
p1650
a(lp1651
S'SearchCanvas'
p1652
aS'q'
aS'web?q={k}'
p1653
aaa(lp1654
S'www.searchy.co.uk'
p1655
a(lp1656
S'Searchy'
p1657
aS'q'
aS'index.html?q={k}'
p1658
aaa(lp1659
S'bg.setooz.com'
p1660
a(lp1661
S'Setooz'
p1662
ag123
aS'search?query={k}'
p1663
aaa(lp1664
S'da.setooz.com'
p1665
a(lp1666
g1662
aaa(lp1667
S'el.setooz.com'
p1668
a(lp1669
g1662
aaa(lp1670
S'fa.setooz.com'
p1671
a(lp1672
g1662
aaa(lp1673
S'ur.setooz.com'
p1674
a(lp1675
g1662
aaa(lp1676
S'{}.setooz.com'
p1677
a(lp1678
g1662
aaa(lp1679
S'search.seznam.cz'
p1680
a(lp1681
S'Seznam'
p1682
aS'q'
aS'?q={k}'
p1683
aaa(lp1684
S'videa.seznam.cz'
p1685
a(lp1686
S'Seznam Videa'
p1687
aS'q'
aS'?q={k}'
p1688
aaa(lp1689
S'www.sharelook.fr'
p1690
a(lp1691
S'Sharelook'
p1692
ag635
aaa(lp1693
S'www.skynet.be'
p1694
a(lp1695
S'Skynet'
p1696
aS'q'
aS'services/recherche/google?q={k}'
p1697
aaa(lp1698
S'm.sm.cn'
p1699
a(lp1700
S'sm.cn'
p1701
aS'q'
aS's?q={k}'
p1702
aaa(lp1703
S'm.sp.sm.cn'
p1704
a(lp1705
S'sm.cn'
p1706
aaa(lp1707
S'www.sm.de'
p1708
a(lp1709
S'sm.de'
p1710
aS'q'
aS'?q={k}'
p1711
aaa(lp1712
S'search.smartaddressbar.com'
p1713
a(lp1714
S'SmartAddressbar'
p1715
aS's'
aS'?s={k}'
p1716
aaa(lp1717
S'search.snap.do'
p1718
a(lp1719
S'Snap.do'
p1720
aS'q'
aS'?q={k}'
p1721
aaa(lp1722
S'search.seesaa.jp'
p1723
a(lp1724
S'SeeSaa'
p1725
aS'/\\/([^\\/]+)\\/index\\.html/'
p1726
aS'{k}/index.html'
p1727
aaa(lp1728
S'www.so-net.ne.jp'
p1729
a(lp1730
S'So-net'
p1731
ag123
aS'search/web/?query={k}'
p1732
aaa(lp1733
S'video.so-net.ne.jp'
p1734
a(lp1735
S'So-net Videos'
p1736
ag392
aS'search/?kw={k}'
p1737
aaa(lp1738
S'www.sogou.com'
p1739
a(lp1740
S'Sogou'
p1741
ag123
aS'web?query={k}'
p1742
ag29
aaa(lp1743
S'm.sogou.com'
p1744
a(lp1745
g1741
ag635
aaa(lp1746
S'search.softonic.com'
p1747
a(lp1748
S'Softonic'
p1749
aS'q'
aS'default/default?q={k}'
p1750
aaa(lp1751
S'www.soso.com'
p1752
a(lp1753
S'Soso'
p1754
aS'w'
aS'q?w={k}'
p1755
ag29
aaa(lp1756
S'www.sputnik.ru'
p1757
a(lp1758
S'Sputnik'
p1759
aS'q'
aS'search?q={k}'
p1760
aaa(lp1761
S'www.startsiden.no'
p1762
a(lp1763
S'Startsiden'
p1764
aS'q'
aS'sok/index.html?q={k}'
p1765
aaa(lp1766
S'suche.info'
p1767
a(lp1768
S'Suche.info'
p1769
ag260
aS'suche.php?Keywords={k}'
p1770
aaa(lp1771
S'www.suchmaschine.com'
p1772
a(lp1773
S'Suchmaschine.com'
p1774
aS'suchstr'
p1775
aS'cgi-bin/wo.cgi?suchstr={k}'
p1776
aaa(lp1777
S'www.suchnase.de'
p1778
a(lp1779
S'Suchnase'
p1780
aS'q'
aaa(lp1781
S'surfcanyon.com'
p1782
a(lp1783
S'Surf Canyon'
p1784
aS'q'
aaa(lp1785
S'www.talimba.com'
p1786
a(lp1787
S'talimba'
p1788
ag417
aS'index.php?page=search/web&search={k}'
p1789
aaa(lp1790
S'www.talktalk.co.uk'
p1791
a(lp1792
S'TalkTalk'
p1793
ag123
aS'search/results.html?query={k}'
p1794
aaa(lp1795
S'technorati.com'
p1796
a(lp1797
S'Technorati'
p1798
aS'q'
aS'search?return=sites&authority=all&q={k}'
p1799
aaa(lp1800
S'www.teoma.com'
p1801
a(lp1802
S'Teoma'
p1803
aS'q'
aS'web?q={k}'
p1804
aaa(lp1805
S'buscador.terra.es'
p1806
a(lp1807
S'Terra'
p1808
ag123
aS'Default.aspx?source=Search&query={k}'
p1809
aaa(lp1810
S'buscador.terra.cl'
p1811
a(lp1812
g1808
aaa(lp1813
S'buscador.terra.com.br'
p1814
a(lp1815
g1808
aaa(lp1816
S'search.tiscali.it'
p1817
a(lp1818
S'Tiscali'
p1819
a(lp1820
S'q'
ag1335
aaS'?q={k}'
p1821
aaa(lp1822
S'search-dyn.tiscali.it'
p1823
a(lp1824
g1819
aaa(lp1825
S'hledani.tiscali.cz'
p1826
a(lp1827
g1819
ag123
aaa(lp1828
S'www.tixuma.de'
p1829
a(lp1830
S'Tixuma'
p1831
aS'sc'
p1832
aS'index.php?mp=search&stp=&sc={k}&tg=0'
p1833
aaa(lp1834
S'suche.t-online.de'
p1835
a(lp1836
S'T-Online'
p1837
aS'q'
aS'fast-cgi/tsc?mandant=toi&context=internet-tab&q={k}'
p1838
aaa(lp1839
S'brisbane.t-online.de'
p1840
a(lp1841
S'T-Online'
p1842
aaa(lp1843
S'navigationshilfe.t-online.de'
p1844
a(lp1845
S'T-Online'
p1846
aS'q'
aS'dtag/dns/results?mode=search_top&q={k}'
p1847
aaa(lp1848
S'www.toolbarhome.com'
p1849
a(lp1850
S'Toolbarhome'
p1851
aS'q'
aS'search.aspx?q={k}'
p1852
aaa(lp1853
S'vshare.toolbarhome.com'
p1854
a(lp1855
g1851
aaa(lp1856
S'www.toppreise.ch'
p1857
a(lp1858
S'Toppreise.ch'
p1859
ag417
aS'index.php?search={k}'
p1860
aS'ISO-8859-1'
p1861
aaa(lp1862
S'toppreise.ch'
p1863
a(lp1864
S'Toppreise.ch'
p1865
aNaNaS'ISO-8859-1'
p1866
aaa(lp1867
S'fr.toppreise.ch'
p1868
a(lp1869
S'Toppreise.ch'
p1870
aNaNaS'ISO-8859-1'
p1871
aaa(lp1872
S'de.toppreise.ch'
p1873
a(lp1874
S'Toppreise.ch'
p1875
aNaNaS'ISO-8859-1'
p1876
aaa(lp1877
S'en.toppreise.ch'
p1878
a(lp1879
S'Toppreise.ch'
p1880
aNaNaS'ISO-8859-1'
p1881
aaa(lp1882
S'www.trouvez.com'
p1883
a(lp1884
S'Trouvez.com'
p1885
ag123
aaa(lp1886
S'www.trovarapido.com'
p1887
a(lp1888
S'TrovaRapido'
p1889
aS'q'
aS'result.php?q={k}'
p1890
aaa(lp1891
S'www.trusted-search.com'
p1892
a(lp1893
S'Trusted Search'
p1894
aS'w'
aS'search?w={k}'
p1895
aaa(lp1896
S'www.twingly.com'
p1897
a(lp1898
S'Twingly'
p1899
aS'q'
aS'search?q={k}'
p1900
aaa(lp1901
S'busca.uol.com.br'
p1902
a(lp1903
S'uol.com.br'
p1904
aS'q'
aS'/web/?q={k}'
p1905
aaa(lp1906
S'www.url.org'
p1907
a(lp1908
S'URL.ORGanzier'
p1909
aS'q'
aS'?l=de&q={k}'
p1910
aaa(lp1911
S'www.vinden.nl'
p1912
a(lp1913
S'Vinden'
p1914
aS'q'
aS'?q={k}'
p1915
aaa(lp1916
S'www.vindex.nl'
p1917
a(lp1918
S'Vindex'
p1919
ag1125
aS'/web?search_for={k}'
p1920
aaa(lp1921
S'search.vindex.nl'
p1922
a(lp1923
g1919
aaa(lp1924
S'ricerca.virgilio.it'
p1925
a(lp1926
S'Virgilio'
p1927
ag100
aS'ricerca?qs={k}'
p1928
aaa(lp1929
S'ricercaimmagini.virgilio.it'
p1930
a(lp1931
g1927
aaa(lp1932
S'ricercavideo.virgilio.it'
p1933
a(lp1934
g1927
aaa(lp1935
S'ricercanews.virgilio.it'
p1936
a(lp1937
g1927
aaa(lp1938
S'mobile.virgilio.it'
p1939
a(lp1940
g1927
aS'qrs'
p1941
aaa(lp1942
S'search.ke.voila.fr'
p1943
a(lp1944
S'Voila'
p1945
aS'rdata'
p1946
aS'S/voila?rdata={k}'
p1947
aaa(lp1948
S'www.lemoteur.fr'
p1949
a(lp1950
g1945
aaa(lp1951
S'web.volny.cz'
p1952
a(lp1953
S'Volny'
p1954
ag417
aS'fulltext/?search={k}'
p1955
aS'windows-1250'
p1956
aaa(lp1957
S'www.walhello.info'
p1958
a(lp1959
S'Walhello'
p1960
ag1335
aS'search?key={k}'
p1961
aaa(lp1962
S'www.walhello.com'
p1963
a(lp1964
g1960
aaa(lp1965
S'www.walhello.de'
p1966
a(lp1967
g1960
aaa(lp1968
S'www.walhello.nl'
p1969
a(lp1970
g1960
aaa(lp1971
S'suche.web.de'
p1972
a(lp1973
S'Web.de'
p1974
a(lp1975
S'su'
p1976
aS'q'
aaS'search/web/?su={k}'
p1977
aaa(lp1978
S'm.suche.web.de'
p1979
a(lp1980
S'Web.de'
p1981
aaa(lp1982
S'www.web.nl'
p1983
a(lp1984
S'Web.nl'
p1985
aS'zoekwoord'
p1986
aaa(lp1987
S'www.weborama.fr'
p1988
a(lp1989
S'weborama'
p1990
aS'QUERY'
p1991
aaa(lp1992
S'www.websearch.com'
p1993
a(lp1994
S'WebSearch'
p1995
a(lp1996
S'qkw'
p1997
aS'q'
aaS'search/results2.aspx?q={k}'
p1998
aaa(lp1999
S'fr.wedoo.com'
p2000
a(lp2001
S'Wedoo'
p2002
ag635
aaa(lp2003
S'en.wedoo.com'
p2004
a(lp2005
g2002
aaa(lp2006
S'es.wedoo.com'
p2007
a(lp2008
g2002
aaa(lp2009
S'search.winamp.com'
p2010
a(lp2011
S'Winamp'
p2012
aS'q'
aS'search/search?q={k}'
p2013
aaa(lp2014
S'www.witch.de'
p2015
a(lp2016
S'Witch'
p2017
ag417
aS'search-result.php?cn=0&search={k}'
p2018
aaa(lp2019
S'szukaj.wp.pl'
p2020
a(lp2021
S'Wirtualna Polska'
p2022
aS'szukaj'
p2023
aS'http:#szukaj.wp.pl/szukaj.html?szukaj={k}'
p2024
aaa(lp2025
S'www.woopie.jp'
p2026
a(lp2027
S'Woopie'
p2028
ag392
aS'search?kw={k}'
p2029
aaa(lp2030
S'search.www.ee'
p2031
a(lp2032
S'www v\xc3\xa4rav'
p2033
ag123
aaa(lp2034
S'www.x-recherche.com'
p2035
a(lp2036
S'X-Recherche'
p2037
aS'MOTS'
p2038
aS'cgi-bin/websearch?MOTS={k}'
p2039
aaa(lp2040
S'search.yahoo.co.jp'
p2041
a(lp2042
S'Yahoo! Japan'
p2043
a(lp2044
S'p'
aS'vp'
p2045
aaS'search?p={k}'
p2046
aaa(lp2047
S'jp.hao123.com'
p2048
a(lp2049
S'Yahoo! Japan'
p2050
ag123
aaa(lp2051
S'video.search.yahoo.co.jp'
p2052
a(lp2053
S'Yahoo! Japan Videos'
p2054
aS'p'
aS'search?p={k}'
p2055
aaa(lp2056
S'image.search.yahoo.co.jp'
p2057
a(lp2058
S'Yahoo! Japan Images'
p2059
aS'p'
aS'search?p={k}'
p2060
aaa(lp2061
S'search.yahoo.com'
p2062
a(lp2063
S'Yahoo!'
p2064
a(lp2065
S'p'
aS'q'
aaS'search?p={k}'
p2066
aaa(lp2067
S'yahoo.com'
p2068
a(lp2069
S'Yahoo!'
p2070
aaa(lp2071
S'yahoo.{}'
p2072
a(lp2073
S'Yahoo!'
p2074
aaa(lp2075
S'{}.yahoo.com'
p2076
a(lp2077
S'Yahoo!'
p2078
aaa(lp2079
S'cade.yahoo.com'
p2080
a(lp2081
S'Yahoo!'
p2082
aaa(lp2083
S'espanol.yahoo.com'
p2084
a(lp2085
S'Yahoo!'
p2086
aaa(lp2087
S'qc.yahoo.com'
p2088
a(lp2089
S'Yahoo!'
p2090
aaa(lp2091
S'one.cn.yahoo.com'
p2092
a(lp2093
S'Yahoo!'
p2094
aaa(lp2095
S'www.cercato.it'
p2096
a(lp2097
S'Yahoo!'
p2098
aS'q'
aaa(lp2099
S'search.offerbox.com'
p2100
a(lp2101
S'Yahoo!'
p2102
aS'q'
aaa(lp2103
S'www.benefind.de'
p2104
a(lp2105
S'Yahoo!'
p2106
aS'q'
aaa(lp2107
S'ys.mirostart.com'
p2108
a(lp2109
S'Yahoo!'
p2110
aS'q'
aaa(lp2111
S'search.yahoo.com/search/dir'
p2112
a(lp2113
S'Yahoo! Directory'
p2114
aS'p'
aS'?p={k}'
p2115
aaa(lp2116
S'images.search.yahoo.com'
p2117
a(lp2118
S'Yahoo! Images'
p2119
a(lp2120
S'p'
aS'va'
p2121
aaS'search/images?p={k}'
p2122
aaa(lp2123
S'{}.images.yahoo.com'
p2124
a(lp2125
S'Yahoo! Images'
p2126
aaa(lp2127
S'cade.images.yahoo.com'
p2128
a(lp2129
S'Yahoo! Images'
p2130
aaa(lp2131
S'espanol.images.yahoo.com'
p2132
a(lp2133
S'Yahoo! Images'
p2134
aaa(lp2135
S'qc.images.yahoo.com'
p2136
a(lp2137
S'Yahoo! Images'
p2138
aaa(lp2139
S'search.yam.com'
p2140
a(lp2141
S'Yam'
p2142
aS'k'
aS'Search/Web/?SearchType=web&k={k}'
p2143
aaa(lp2144
S'yandex.ru'
p2145
a(lp2146
S'Yandex'
p2147
ag1574
aS'yandsearch?text={k}'
p2148
aaa(lp2149
S'yandex.com'
p2150
a(lp2151
g2147
aaa(lp2152
S'yandex.{}'
p2153
a(lp2154
g2147
aaa(lp2155
S'images.yandex.ru'
p2156
a(lp2157
S'Yandex Images'
p2158
ag1574
aS'yandsearch?text={k}'
p2159
aaa(lp2160
S'images.yandex.com'
p2161
a(lp2162
S'Yandex Images'
p2163
aaa(lp2164
S'images.yandex.{}'
p2165
a(lp2166
S'Yandex Images'
p2167
aaa(lp2168
S'www.yasni.de'
p2169
a(lp2170
S'Yasni'
p2171
ag123
aaa(lp2172
S'www.yasni.com'
p2173
a(lp2174
g2171
aaa(lp2175
S'www.yasni.co.uk'
p2176
a(lp2177
g2171
aaa(lp2178
S'www.yasni.ch'
p2179
a(lp2180
g2171
aaa(lp2181
S'www.yasni.at'
p2182
a(lp2183
g2171
aaa(lp2184
S'www.yatedo.com'
p2185
a(lp2186
S'Yatedo'
p2187
aS'q'
aS'search/profil?q={k}'
p2188
aaa(lp2189
S'www.yatedo.fr'
p2190
a(lp2191
g2187
aaa(lp2192
S'yellowmap.de'
p2193
a(lp2194
S'Yellowmap'
p2195
aS' '
aaa(lp2196
S'search.yippy.com'
p2197
a(lp2198
S'Yippy'
p2199
ag123
aS'search?query={k}'
p2200
aaa(lp2201
S'www.yougoo.fr'
p2202
a(lp2203
S'YouGoo'
p2204
aS'q'
aS'?cx=search&q={k}'
p2205
aaa(lp2206
S'www.zapmeta.com'
p2207
a(lp2208
S'Zapmeta'
p2209
a(lp2210
S'q'
ag123
aaS'?q={k}'
p2211
aaa(lp2212
S'zapmeta.{}'
p2213
a(lp2214
g2209
aaa(lp2215
S'uk.zapmeta.com'
p2216
a(lp2217
g2209
aaa(lp2218
S'ar.zapmeta.com'
p2219
a(lp2220
g2209
aaa(lp2221
S'au.zapmeta.com'
p2222
a(lp2223
g2209
aaa(lp2224
S'ca.zapmeta.com'
p2225
a(lp2226
g2209
aaa(lp2227
S'fi.zapmeta.com'
p2228
a(lp2229
g2209
aaa(lp2230
S'no.zapmeta.com'
p2231
a(lp2232
g2209
aaa(lp2233
S'tr.zapmeta.com'
p2234
a(lp2235
g2209
aaa(lp2236
S'www3.zoek.nl'
p2237
a(lp2238
S'Zoek'
p2239
aS'q'
aaa(lp2240
S'p.zhongsou.com'
p2241
a(lp2242
S'Zhongsou'
p2243
aS'w'
aS'p?w={k}'
p2244
aaa(lp2245
S'www.zoeken.nl'
p2246
a(lp2247
S'Zoeken'
p2248
aS'q'
aS'?q={k}'
p2249
aaa(lp2250
S'zoohoo.cz'
p2251
a(lp2252
S'Zoohoo'
p2253
aS'q'
aS'?q={k}'
p2254
aS'windows-1250'
p2255
aaa(lp2256
S'www.zoznam.sk'
p2257
a(lp2258
S'Zoznam'
p2259
aS's'
aS'hladaj.fcgi?s={k}&co=svet'
p2260
aaa(lp2261
S'www.zxuso.com'
p2262
a(lp2263
S'Zxuso'
p2264
ag390
aS'ri/?wd={k}'
p2265
aaatRp2266
.