ccollections
OrderedDict
p1
((lp2
(lp3
S'1.cz'
p4
a(lp5
g4
a(lp6
S'/s\\/([^\\/]+)/'
p7
aS'q'
aaS's/{k}'
p8
aS'iso-8859-2'
p9
aaa(lp10
S'www.suchnase.de'
p11
a(lp12
S'Suchnase'
p13
aS'q'
aaa(lp14
S'cc.bingj.com'
p15
a(lp16
S'Bing'
p17
aaa(lp18
S'www.askkids.com'
p19
a(lp20
S'Ask'
p21
aaa(lp22
S'search.smartaddressbar.com'
p23
a(lp24
S'SmartAddressbar'
p25
aS's'
aS'?s={k}'
p26
aaa(lp27
S'{}.altavista.com'
p28
a(lp29
S'AltaVista'
p30
aaa(lp31
S'www.qualigo.ch'
p32
a(lp33
S'Qualigo'
p34
aaa(lp35
S'news.google.{}'
p36
a(lp37
S'Google News'
p38
aaa(lp39
S'scour.com'
p40
a(lp41
S'Scour.com'
p42
aS'/search\\/[^\\/]+\\/(.*)/'
p43
aS'search/web/{k}'
p44
aaa(lp45
S'search.nifty.com'
p46
a(lp47
S'Nifty'
p48
a(lp49
S'q'
aS'Text'
p50
aaS'websearch/search?q={k}'
p51
aaa(lp52
S'search.kiwee.com'
p53
a(lp54
S'InfoSpace'
p55
aaa(lp56
S'search.chatzum.com'
p57
a(lp58
g55
aS'q'
aaa(lp59
S'www.paperball.de'
p60
a(lp61
S'Paperball'
p62
aS'q'
aS'suche/s/?q={k}'
p63
aaa(lp64
S'www.recherche.aol.fr'
p65
a(lp66
S'AOL'
p67
aaa(lp68
S'be-fr.altavista.com'
p69
a(lp70
g30
aaa(lp71
S'search.conduit.com'
p72
a(lp73
S'Conduit.com'
p74
aS'q'
aS'Results.aspx?q={k}'
p75
aaa(lp76
S'search.aol.co.uk'
p77
a(lp78
g67
aaa(lp79
S'image.search.smt.docomo.ne.jp'
p80
a(lp81
S'Google'
p82
aS'MT'
p83
aaa(lp84
S'my.daemon-search.com'
p85
a(lp86
S'Daemon search'
p87
aaa(lp88
S'qc.images.yahoo.com'
p89
a(lp90
S'Yahoo! Images'
p91
aaa(lp92
S'searchalot.com'
p93
a(lp94
S'Searchalot'
p95
aS'q'
aS'?q={k}'
p96
aaa(lp97
S'tieba.baidu.com'
p98
a(lp99
S'Baidu'
p100
aaa(lp101
S'search.www.ee'
p102
a(lp103
S'www v\xc3\xa4rav'
p104
aS'query'
p105
aaa(lp106
S'{}.qbyrd.com'
p107
a(lp108
g21
aaa(lp109
S'search.excite.nl'
p110
a(lp111
S'Excite'
p112
aaa(lp113
S'search2.incredimail.com'
p114
a(lp115
g82
aaa(lp116
S'yandex.com'
p117
a(lp118
S'Yandex'
p119
aaa(lp120
S'www.abacho.ch'
p121
a(lp122
S'Abacho'
p123
aaa(lp124
S'dizionario.it.msn.com'
p125
a(lp126
g17
aaa(lp127
S'www.woopie.jp'
p128
a(lp129
S'Woopie'
p130
aS'kw'
p131
aS'search?kw={k}'
p132
aaa(lp133
S'www.flix.de'
p134
a(lp135
S'Flix.de'
p136
aS'keyword'
p137
aaa(lp138
S'meta.ua'
p139
a(lp140
S'Meta.ua'
p141
aS'q'
aS'search.asp?q={k}'
p142
aaa(lp143
S'www.maailm.com'
p144
a(lp145
S'maailm.com'
p146
aS'tekst'
p147
aaa(lp148
S'google.{}/cse'
p149
a(lp150
S'Google Custom Search'
p151
aaa(lp152
S'utorrent.inspsearch.com'
p153
a(lp154
g55
aS'q'
aaa(lp155
S'blekko.com'
p156
a(lp157
S'blekko'
p158
a(lp159
S'q'
aS'/\\/ws\\/(.*)/'
p160
aaS'ws/{k}'
p161
aaa(lp162
S's1-eu.ixquick.de'
p163
a(lp164
S'Ixquick'
p165
aaa(lp166
S'ecosia.org'
p167
a(lp168
S'Ecosia'
p169
aS'q'
aS'search.php?q={k}'
p170
aaa(lp171
S'search.softonic.com'
p172
a(lp173
S'Softonic'
p174
aS'q'
aS'default/default?q={k}'
p175
aaa(lp176
S'search.comcast.net'
p177
a(lp178
S'Comcast'
p179
aS'q'
ag96
aaa(lp180
S'alicesuche.aol.de'
p181
a(lp182
g67
aaa(lp183
S'szukaj.onet.pl'
p184
a(lp185
S'Onet.pl'
p186
aS'qt'
p187
aS'query.html?qt={k}'
p188
aaa(lp189
S'fr.toppreise.ch'
p190
a(lp191
S'Toppreise.ch'
p192
aNaNaS'ISO-8859-1'
p193
aaa(lp194
S'search.qip.ru'
p195
a(lp196
S'qip.ru'
p197
ag105
aS'search?query={k}'
p198
aaa(lp199
S'www.aolrecherche.aol.fr'
p200
a(lp201
g67
aaa(lp202
S'alicesuchet.aol.de'
p203
a(lp204
g67
aaa(lp205
S'www.web.nl'
p206
a(lp207
S'Web.nl'
p208
aS'zoekwoord'
p209
aaa(lp210
S'one.cn.yahoo.com'
p211
a(lp212
S'Yahoo!'
p213
aaa(lp214
S'www.suchmaschine.com'
p215
a(lp216
S'Suchmaschine.com'
p217
aS'suchstr'
p218
aS'cgi-bin/wo.cgi?suchstr={k}'
p219
aaa(lp220
S'claro-search.com'
p221
a(lp222
S'Claro Search'
p223
aS'q'
ag96
aaa(lp224
S'altavista.fr'
p225
a(lp226
g30
aaa(lp227
S'search.goo.ne.jp'
p228
a(lp229
S'goo'
p230
ag83
aS'web.jsp?MT={k}'
p231
aaa(lp232
S'o2suche.aol.de'
p233
a(lp234
g67
aaa(lp235
S'www.zoznam.sk'
p236
a(lp237
S'Zoznam'
p238
aS's'
aS'hladaj.fcgi?s={k}&co=svet'
p239
aaa(lp240
S'www.1881.no'
p241
a(lp242
S'Opplysningen 1881'
p243
aS'Query'
p244
aS'Multi/?Query={k}'
p245
aaa(lp246
S'search.yahoo.co.jp'
p247
a(lp248
S'Yahoo! Japan'
p249
a(lp250
S'p'
aS'vp'
p251
aaS'search?p={k}'
p252
aaa(lp253
S'video.so-net.ne.jp'
p254
a(lp255
S'So-net Videos'
p256
ag131
aS'search/?kw={k}'
p257
aaa(lp258
S'www.crawler.com'
p259
a(lp260
S'Crawler'
p261
aS'q'
aS'search/results1.aspx?q={k}'
p262
aaa(lp263
S'webfetch.com'
p264
a(lp265
g55
aaa(lp266
S'www.blogdigger.com'
p267
a(lp268
S'Blogdigger'
p269
aS'q'
aaa(lp270
S'start.funmoods.com'
p271
a(lp272
g55
aS'q'
aaa(lp273
S'www.sm.de'
p274
a(lp275
S'sm.de'
p276
aS'q'
ag96
aaa(lp277
S'int.search.tb.ask.com'
p278
a(lp279
g21
aaa(lp280
S'arama.com'
p281
a(lp282
S'Arama'
p283
aS'q'
aS'search.php3?q={k}'
p284
aaa(lp285
S'www.ilse.nl'
p286
a(lp287
S'Ilse NL'
p288
aS'search_for'
p289
aS'?search_for={k}'
p290
aaa(lp291
S'mobile.virgilio.it'
p292
a(lp293
S'Virgilio'
p294
aS'qrs'
p295
aaa(lp296
S'webcache.googleusercontent.com'
p297
a(lp298
g82
aS'/\\/search\\?q=cache:[A-Za-z0-9]+:[^+]+([^&]+)/'
p299
aS'search?q={k}'
p300
aaa(lp301
S'morfeo.centrum.cz'
p302
a(lp303
S'Centrum'
p304
aaa(lp305
S'{}.yahoo.com'
p306
a(lp307
g213
aaa(lp308
S'listings.altavista.com'
p309
a(lp310
g30
aaa(lp311
S'gppgle.com'
p312
a(lp313
g82
aaa(lp314
S'www.x-recherche.com'
p315
a(lp316
S'X-Recherche'
p317
aS'MOTS'
p318
aS'cgi-bin/websearch?MOTS={k}'
p319
aaa(lp320
S'm5.baidu.com'
p321
a(lp322
g100
a(lp323
S'wd'
p324
aS'word'
p325
ag131
aaS's?wd={k}'
p326
a(lp327
S'UTF-8'
p328
aS'gb2312'
p329
aaaa(lp330
S'search.foxtab.com'
p331
a(lp332
g82
aaa(lp333
S'ipv6.google.com'
p334
a(lp335
g82
aaa(lp336
S'search.1und1.de'
p337
a(lp338
g82
aS'q'
aS'web?q={k}'
p339
aaa(lp340
S'verden.abcsok.no'
p341
a(lp342
S'ABCs\xc3\xb8k'
p343
aaa(lp344
S'r.duckduckgo.com'
p345
a(lp346
S'DuckDuckGo'
p347
aaa(lp348
S'lycos.{}'
p349
a(lp350
S'Lycos'
p351
aaa(lp352
S'gogole.com'
p353
a(lp354
g82
aaa(lp355
S'search.azby.fmworld.net'
p356
a(lp357
g48
aaa(lp358
S'search.genieo.com'
p359
a(lp360
S'Genieo'
p361
aS'q'
aS'&q={k}'
p362
aaa(lp363
S'www.ixquick.de'
p364
a(lp365
g165
aaa(lp366
S'es.wedoo.com'
p367
a(lp368
S'Wedoo'
p369
aaa(lp370
S'surfcanyon.com'
p371
a(lp372
S'Surf Canyon'
p373
aS'q'
aaa(lp374
S'{}.setooz.com'
p375
a(lp376
S'Setooz'
p377
aaa(lp378
S'search.avg.com'
p379
a(lp380
g82
aaa(lp381
S'search.yahoo.com/search/dir'
p382
a(lp383
S'Yahoo! Directory'
p384
aS'p'
aS'?p={k}'
p385
aaa(lp386
S'maps.google.com'
p387
a(lp388
S'Google Maps'
p389
aS'q'
aS'maps?q={k}'
p390
aaa(lp391
S'da.setooz.com'
p392
a(lp393
g377
aaa(lp394
S'www.fastbrowsersearch.com'
p395
a(lp396
S'Fast Browser Search'
p397
aS'q'
aS'results/results.aspx?q={k}'
p398
aaa(lp399
S'espanol.yahoo.com'
p400
a(lp401
g213
aaa(lp402
S'www.looksmart.com'
p403
a(lp404
S'Looksmart'
p405
aS'key'
p406
aaa(lp407
S'search.hp.my.aol.it'
p408
a(lp409
g67
aaa(lp410
S'www1.dastelefonbuch.de'
p411
a(lp412
S'DasTelefonbuch'
p413
ag131
aaa(lp414
S'zapmeta.{}'
p415
a(lp416
S'Zapmeta'
p417
aaa(lp418
S'geona.net'
p419
a(lp420
S'Geona'
p421
aS'q'
ag300
aaa(lp422
S'all.by'
p423
a(lp424
S'All.by'
p425
ag105
aS'cgi-bin/search.cgi?mode=by&query={k}'
p426
aaa(lp427
S'szukaj.wp.pl'
p428
a(lp429
S'Wirtualna Polska'
p430
aS'szukaj'
p431
aS'http:#szukaj.wp.pl/szukaj.html?szukaj={k}'
p432
aaa(lp433
S'vshare.toolbarhome.com'
p434
a(lp435
S'Toolbarhome'
p436
aaa(lp437
S'www.yasni.com'
p438
a(lp439
S'Yasni'
p440
aaa(lp441
S'start.lenovo.com'
p442
a(lp443
g82
aS'q'
aS'search/index.php?q={k}'
p444
aaa(lp445
S'msxml.excite.com'
p446
a(lp447
g112
aS'/\\/[^\\/]+\\/ws\\/results\\/[^\\/]+\\/([^\\/]+)/'
p448
aaa(lp449
S'online.no'
p450
a(lp451
S'Online.no'
p452
aS'q'
aS'google/index.jsp?q={k}'
p453
aaa(lp454
S'so.m.sm.cn'
p455
a(lp456
S'sm'
p457
aS'q'
aS's?q={k}'
p458
aaa(lp459
S'search.excite.fr'
p460
a(lp461
g112
aaa(lp462
S'google.{}'
p463
a(lp464
g82
aS'q'
ag300
aaa(lp465
S'fa.setooz.com'
p466
a(lp467
g377
aaa(lp468
S'www.mamma.com'
p469
a(lp470
S'Mamma'
p471
ag105
aS'result.php?q={k}'
p472
aaa(lp473
S'pesquisa.sapo.pt'
p474
a(lp475
S'Sapo'
p476
aS'q'
ag96
aaa(lp477
S'www.abacho.com'
p478
a(lp479
g123
aaa(lp480
S'search.excite.de'
p481
a(lp482
g112
aaa(lp483
S'search.walla.co.il'
p484
a(lp485
g82
aaa(lp486
S'www.gnadenmeer.de'
p487
a(lp488
S'Gnadenmeer'
p489
ag137
aaa(lp490
S'nigma.ru'
p491
a(lp492
S'Nigma'
p493
aS's'
aS'index.php?s={k}'
p494
aaa(lp495
S'navigationshilfe.t-online.de'
p496
a(lp497
S'T-Online'
p498
aS'q'
aS'dtag/dns/results?mode=search_top&q={k}'
p499
aaa(lp500
S'www.abacho.co.uk'
p501
a(lp502
g123
aaa(lp503
S'www.talktalk.co.uk'
p504
a(lp505
S'TalkTalk'
p506
ag105
aS'search/results.html?query={k}'
p507
aaa(lp508
S'aolrecherche.aol.fr'
p509
a(lp510
g67
aaa(lp511
S'au.zapmeta.com'
p512
a(lp513
g417
aaa(lp514
S'extern.peoplecheck.de'
p515
a(lp516
S'PeopleCheck'
p517
aS'q'
aS'link.php?q={k}'
p518
aaa(lp519
S'it.luna.tv'
p520
a(lp521
g82
aaa(lp522
S'search-intl.netscape.com'
p523
a(lp524
g67
aaa(lp525
S'www.walhello.nl'
p526
a(lp527
S'Walhello'
p528
aaa(lp529
S'www.najdi.si'
p530
a(lp531
S'Najdi.si'
p532
aS'q'
aS'search.jsp?q={k}'
p533
aaa(lp534
S'www.yatedo.com'
p535
a(lp536
S'Yatedo'
p537
aS'q'
aS'search/profil?q={k}'
p538
aaa(lp539
S'gogole.{}'
p540
a(lp541
g82
aaa(lp542
S'search.iminent.com'
p543
a(lp544
g55
aS'q'
aaa(lp545
S'www.teoma.com'
p546
a(lp547
S'Teoma'
p548
aS'q'
ag339
aaa(lp549
S'yahoo.{}'
p550
a(lp551
g213
aaa(lp552
S'duckduckgo.com'
p553
a(lp554
g347
aS'q'
ag96
aaa(lp555
S'video.search.yahoo.co.jp'
p556
a(lp557
S'Yahoo! Japan Videos'
p558
aS'p'
ag252
aaa(lp559
S'ts1.m.sm.cn'
p560
a(lp561
g457
aS'q'
ag458
aaa(lp562
S'www.fixsuche.de'
p563
a(lp564
S'Fixsuche'
p565
aS'q'
aaa(lp566
S'ur.setooz.com'
p567
a(lp568
g377
aaa(lp569
S'www.qwant.com'
p570
a(lp571
S'Qwant'
p572
aS'q'
aaa(lp573
S'class.hit-parade.com'
p574
a(lp575
S'Hit-Parade'
p576
aaa(lp577
S'jyxo.1188.cz'
p578
a(lp579
S'Jyxo'
p580
aS'q'
ag458
aaa(lp581
S'www.plazoo.com'
p582
a(lp583
S'Plazoo'
p584
aS'q'
aaa(lp585
S'www.eniro.se'
p586
a(lp587
S'Eniro'
p588
a(lp589
S'q'
aS'search_word'
p590
aaS'query?q={k}'
p591
aaa(lp592
S'fr.dir.com'
p593
a(lp594
S'dir.com'
p595
aS'req'
p596
aaa(lp597
S'm.sm.cn'
p598
a(lp599
g457
aS'q'
ag458
aaa(lp600
S'web.ask.com'
p601
a(lp602
g21
aaa(lp603
S'en.toppreise.ch'
p604
a(lp605
g192
aNaNag193
aaa(lp606
S'www.icq.com'
p607
a(lp608
S'ICQ'
p609
aS'q'
aS'search/results.php?q={k}'
p610
aaa(lp611
S'search.seznam.cz'
p612
a(lp613
S'Seznam'
p614
aS'q'
ag96
aaa(lp615
S'www.jungle-spider.de'
p616
a(lp617
S'Jungle Spider'
p618
aS'q'
aaa(lp619
S'go.google.com'
p620
a(lp621
g82
aaa(lp622
S'search.altavista.com'
p623
a(lp624
g30
aaa(lp625
S'daemon-search.com'
p626
a(lp627
g87
aS'q'
aS'explore/web?q={k}'
p628
aaa(lp629
S'searchatlas.centrum.cz'
p630
a(lp631
S'Atlas'
p632
aS'q'
ag96
aaa(lp633
S'search.free.fr'
p634
a(lp635
S'Free'
p636
aS'q'
aaa(lp637
S'www2.inbox.com'
p638
a(lp639
S'Inbox'
p640
aS'q'
ag262
aaa(lp641
S'www.trusted-search.com'
p642
a(lp643
S'Trusted Search'
p644
aS'w'
aS'search?w={k}'
p645
aaa(lp646
S'be-nl.altavista.com'
p647
a(lp648
g30
aaa(lp649
S'm.yz.sm.cn'
p650
a(lp651
g457
aS'q'
ag458
aaa(lp652
S'www.hotbot.com'
p653
a(lp654
S'Hotbot'
p655
ag105
aaa(lp656
S'buscador.terra.com.br'
p657
a(lp658
S'Terra'
p659
aaa(lp660
S'recherche.aol.ca'
p661
a(lp662
g67
aaa(lp663
S'k9safesearch.com'
p664
a(lp665
S'K9 Safe Search'
p666
aS'q'
ag533
aaa(lp667
S'www.url.org'
p668
a(lp669
S'URL.ORGanzier'
p670
aS'q'
aS'?l=de&q={k}'
p671
aaa(lp672
S'abcsok.no'
p673
a(lp674
g343
aS'q'
ag96
aaa(lp675
S'web.volny.cz'
p676
a(lp677
S'Volny'
p678
aS'search'
p679
aS'fulltext/?search={k}'
p680
aS'windows-1250'
p681
aaa(lp682
S'search.sweetim.com'
p683
a(lp684
g82
aaa(lp685
S'isearch.glarysoft.com'
p686
a(lp687
g55
aS'q'
aaa(lp688
S'search.hp.my.aol.com.au'
p689
a(lp690
g67
aaa(lp691
S'search.lycos.com'
p692
a(lp693
g351
ag105
aS'?query={k}'
p694
aaa(lp695
S'search.dolphin-browser.jp'
p696
a(lp697
g82
aaa(lp698
S'www.arcor.de'
p699
a(lp700
S'Arcor'
p701
aS'Keywords'
p702
aS'content/searchresult.jsp?Keywords={k}'
p703
aaa(lp704
S's1.us.ixquick.com'
p705
a(lp706
g165
aaa(lp707
S'www.haosou.com'
p708
a(lp709
S'360search'
p710
aS'q'
ag458
aaa(lp711
S'www.gomeo.com'
p712
a(lp713
S'Gomeo'
p714
a(lp715
g702
aS'/\\/search\\/([^\\/]+)/'
p716
aaS'/search/{k}'
p717
aaa(lp718
S'www.abacho.fr'
p719
a(lp720
g123
aaa(lp721
S'us.ixquick.com'
p722
a(lp723
g165
aaa(lp724
S's5-eu4.ixquick.com'
p725
a(lp726
g165
aaa(lp727
S'www.mozbot.fr'
p728
a(lp729
S'mozbot'
p730
aS'q'
aS'results.php?q={k}'
p731
aaa(lp732
S'gais.cs.ccu.edu.tw'
p733
a(lp734
S'GAIS'
p735
aS'q'
ag170
aaa(lp736
S'{}.ask.com'
p737
a(lp738
g21
aaa(lp739
S'search.darkoogle.com'
p740
a(lp741
g82
aaa(lp742
S'searchservice.myspace.com'
p743
a(lp744
S'MySpace'
p745
aS'qry'
p746
aS'index.cfm?fuseaction=sitesearch.results&type=Web&qry={k}'
p747
aaa(lp748
S'de.aolsearch.com'
p749
a(lp750
g67
aS'q'
ag300
aaa(lp751
S'www2.austronaut.at'
p752
a(lp753
S'Austronaut'
p754
aS'q'
aaa(lp755
S'www.cnn.com'
p756
a(lp757
g82
ag105
aaa(lp758
S's1.metacrawler.de'
p759
a(lp760
S'MetaCrawler DE'
p761
ag746
aS'?qry={k}'
p762
aaa(lp763
S'www.eurip.com'
p764
a(lp765
S'Eurip'
p766
aS'q'
aS'search/?q={k}'
p767
aaa(lp768
S'dir.gigablast.com'
p769
a(lp770
S'Gigablast (Directory)'
p771
aS'q'
aaa(lp772
S'www.blogpulse.com'
p773
a(lp774
S'Blogpulse'
p775
ag105
ag198
aaa(lp776
S'search.tb.ask.com'
p777
a(lp778
g21
aaa(lp779
S'search.babylon.com'
p780
a(lp781
S'Babylon'
p782
a(lp783
S'q'
aS'/\\/web\\/(.*)/'
p784
aag96
aaa(lp785
S'google.{}/products'
p786
a(lp787
S'Google Shopping'
p788
aaa(lp789
S'a.mobi.sogou.com'
p790
a(lp791
S'Sogou'
p792
ag137
aaa(lp793
S'fr.wedoo.com'
p794
a(lp795
g369
ag137
aaa(lp796
S'search.imesh.com'
p797
a(lp798
S'iMesh'
p799
a(lp800
S'q'
aS'si'
p801
aag339
aaa(lp802
S'enciclopedia.it.msn.com'
p803
a(lp804
g17
aaa(lp805
S'plusnetwork.com'
p806
a(lp807
S'PlusNetwork'
p808
aS'q'
ag96
aaa(lp809
S's3.us.ixquick.com'
p810
a(lp811
g165
aaa(lp812
S'suche.t-online.de'
p813
a(lp814
g498
aS'q'
aS'fast-cgi/tsc?mandant=toi&context=internet-tab&q={k}'
p815
aaa(lp816
S'search.nate.com'
p817
a(lp818
S'Nate'
p819
aS'q'
aS'search/all.html?q={k}'
p820
aS'EUC-KR'
p821
aaa(lp822
S'www.talimba.com'
p823
a(lp824
S'talimba'
p825
ag679
aS'index.php?page=search/web&search={k}'
p826
aaa(lp827
S'search.toolbars.alexa.com'
p828
a(lp829
S'Alexa'
p830
aaa(lp831
S'ocnsearch.goo.ne.jp'
p832
a(lp833
g230
aaa(lp834
S'www.metager.de'
p835
a(lp836
S'Metager'
p837
aaa(lp838
S'www.tixuma.de'
p839
a(lp840
S'Tixuma'
p841
aS'sc'
p842
aS'index.php?mp=search&stp=&sc={k}&tg=0'
p843
aaa(lp844
S'jp.hao123.com'
p845
a(lp846
g249
ag105
aaa(lp847
S'pos.baidu.com'
p848
a(lp849
g100
a(lp850
g324
ag325
ag131
aag326
a(lp851
g328
ag329
aaaa(lp852
S'suche.gmx.net'
p853
a(lp854
g82
aS'q'
ag339
aaa(lp855
S'www.allesklar.de'
p856
a(lp857
S'Allesklar'
p858
aS'words'
p859
aS'?words={k}'
p860
aaa(lp861
S'search.winamp.com'
p862
a(lp863
S'Winamp'
p864
aS'q'
aS'search/search?q={k}'
p865
aaa(lp866
S'pesquisa.clix.pt'
p867
a(lp868
S'Clix'
p869
aS'question'
p870
aS'resultado.html?in=Mundial&question={k}'
p871
aaa(lp872
S'busca.orange.es'
p873
a(lp874
S'Orange'
p875
aS'q'
ag300
aaa(lp876
S'recherche.francite.com'
p877
a(lp878
S'Francite'
p879
aS'name'
p880
aaa(lp881
S'www.eu.ixquick.com'
p882
a(lp883
g165
aaa(lp884
S'arianna.libero.it'
p885
a(lp886
S'Arianna'
p887
ag105
aS'search/abin/integrata.cgi?query={k}'
p888
aaa(lp889
S'ricercanews.virgilio.it'
p890
a(lp891
g294
aaa(lp892
S'googel.{}'
p893
a(lp894
g82
aaa(lp895
S'en.wedoo.com'
p896
a(lp897
g369
aaa(lp898
S'{}.forestle.org'
p899
a(lp900
S'Forestle'
p901
aaa(lp902
S'digg.com'
p903
a(lp904
S'Digg'
p905
aS's'
aS'search?s={k}'
p906
aaa(lp907
S'translate.google.com'
p908
a(lp909
S'Google Translations'
p910
aS'q'
aaa(lp911
S'alexa.com'
p912
a(lp913
g830
aS'q'
ag300
aaa(lp914
S'www.trovarapido.com'
p915
a(lp916
S'TrovaRapido'
p917
aS'q'
ag472
aaa(lp918
S'search.ke.voila.fr'
p919
a(lp920
S'Voila'
p921
aS'rdata'
p922
aS'S/voila?rdata={k}'
p923
aaa(lp924
S'www.benefind.de'
p925
a(lp926
g213
aS'q'
aaa(lp927
S'www.allesklar.ch'
p928
a(lp929
g858
aaa(lp930
S'ariadna.elmundo.es'
p931
a(lp932
S'El Mundo'
p933
aS'q'
aaa(lp934
S'websearch.cs.com'
p935
a(lp936
S'Compuserve.com (Enhanced by Google)'
p937
ag105
aS'cs/search?query={k}'
p938
aaa(lp939
S'otsing.delfi.ee'
p940
a(lp941
S'Delfi EE'
p942
aS'q'
aS'find?q={k}'
p943
aaa(lp944
S'aolsearch.aol.co.uk'
p945
a(lp946
g67
aaa(lp947
S'm.yz2.sm.cn'
p948
a(lp949
g457
aS'q'
ag458
aaa(lp950
S'avira-int.ask.com'
p951
a(lp952
g21
aaa(lp953
S'www.websearch.com'
p954
a(lp955
S'WebSearch'
p956
a(lp957
S'qkw'
p958
aS'q'
aaS'search/results2.aspx?q={k}'
p959
aaa(lp960
S'www.yasni.de'
p961
a(lp962
g440
ag105
aaa(lp963
S'{}.search.ask.com'
p964
a(lp965
g21
aaa(lp966
S'www.so.com'
p967
a(lp968
g710
aS'q'
ag458
a(lp969
g328
ag329
aaaa(lp970
S'search.seesaa.jp'
p971
a(lp972
S'SeeSaa'
p973
aS'/\\/([^\\/]+)\\/index\\.html/'
p974
aS'{k}/index.html'
p975
aaa(lp976
S'ricerca.virgilio.it'
p977
a(lp978
g294
aS'qs'
p979
aS'ricerca?qs={k}'
p980
aaa(lp981
S'{}.bing.com'
p982
a(lp983
g17
a(lp984
S'q'
aS'Q'
aag300
aaa(lp985
S'poisk.ru'
p986
a(lp987
S'Poisk.Ru'
p988
aS'text'
p989
aS'cgi-bin/poisk?text={k}'
p990
aS'windows-1251'
p991
aaa(lp992
S'search.yippy.com'
p993
a(lp994
S'Yippy'
p995
ag105
ag198
aaa(lp996
S'images.yandex.ru'
p997
a(lp998
S'Yandex Images'
p999
ag989
aS'yandsearch?text={k}'
p1000
aaa(lp1001
S'www.soso.com'
p1002
a(lp1003
S'Soso'
p1004
aS'w'
aS'q?w={k}'
p1005
ag329
aaa(lp1006
S'm.sp.sm.cn'
p1007
a(lp1008
g457
aaa(lp1009
S'search.webssearches.com'
p1010
a(lp1011
g55
aaa(lp1012
S'www.se.abacho.com'
p1013
a(lp1014
g123
aaa(lp1015
S'search.zonealarm.com'
p1016
a(lp1017
g82
aaa(lp1018
S'www.search-results.com'
p1019
a(lp1020
g21
aaa(lp1021
S'ask.reference.com'
p1022
a(lp1023
g21
aaa(lp1024
S'www.qualigo.at'
p1025
a(lp1026
g34
aS'q'
aaa(lp1027
S'search.b1.org'
p1028
a(lp1029
g55
aS'q'
aaa(lp1030
S'www.walhello.de'
p1031
a(lp1032
g528
aaa(lp1033
S'www.vinden.nl'
p1034
a(lp1035
S'Vinden'
p1036
aS'q'
ag96
aaa(lp1037
S'searchya.com'
p1038
a(lp1039
g55
aS'q'
aaa(lp1040
S'rechercher.aliceadsl.fr'
p1041
a(lp1042
S'Alice Adsl'
p1043
ag979
aS'google.pl?qs={k}'
p1044
aaa(lp1045
S'mamma75.mamma.com'
p1046
a(lp1047
g471
aaa(lp1048
S'el.setooz.com'
p1049
a(lp1050
g377
aaa(lp1051
S'metager2.de'
p1052
a(lp1053
S'Metager2'
p1054
aS'q'
ag444
aaa(lp1055
S'search.auone.jp'
p1056
a(lp1057
S'auone'
p1058
aS'q'
ag96
aaa(lp1059
S'video.google.com'
p1060
a(lp1061
S'Google Video'
p1062
aS'q'
aS'search?q={k}&tbm=vid'
p1063
aaa(lp1064
S'msnbc.msn.com'
p1065
a(lp1066
g17
aaa(lp1067
S'search.excite.co.uk'
p1068
a(lp1069
g112
aaa(lp1070
S'kf.mysearch.myway.com'
p1071
a(lp1072
S'MyWebSearch'
p1073
aaa(lp1074
S'123people.{}'
p1075
a(lp1076
S'123people'
p1077
aaa(lp1078
S'www.neti.ee'
p1079
a(lp1080
S'Neti'
p1081
ag105
aS'cgi-bin/otsing?query={k}'
p1082
aS'iso-8859-1'
p1083
aaa(lp1084
S'm.sogou.com'
p1085
a(lp1086
g792
ag137
aaa(lp1087
S'google.com/products'
p1088
a(lp1089
g788
aS'q'
aS'?q={k}&tbm=shop'
p1090
aaa(lp1091
S'ts3.m.sm.cn'
p1092
a(lp1093
g457
aS'q'
ag458
aaa(lp1094
S'images.search.yahoo.com'
p1095
a(lp1096
g91
a(lp1097
S'p'
aS'va'
p1098
aaS'search/images?p={k}'
p1099
aaa(lp1100
S'cgi.search.biglobe.ne.jp'
p1101
a(lp1102
S'Biglobe'
p1103
aS'q'
aS'cgi-bin/search-st?q={k}'
p1104
aaa(lp1105
S'www.search.ch'
p1106
a(lp1107
S'Search.ch'
p1108
aS'q'
ag96
aaa(lp1109
S'search.tiscali.it'
p1110
a(lp1111
S'Tiscali'
p1112
a(lp1113
S'q'
ag406
aag96
aaa(lp1114
S'www.aolimages.aol.fr'
p1115
a(lp1116
g67
aaa(lp1117
S'www.abacho.at'
p1118
a(lp1119
g123
aaa(lp1120
S'req.hit-parade.com'
p1121
a(lp1122
g576
aS'p7'
p1123
aS'general/recherche.asp?p7={k}'
p1124
aaa(lp1125
S'start.facemoods.com'
p1126
a(lp1127
g55
aS's'
aaa(lp1128
S'www.everyclick.com'
p1129
a(lp1130
S'Everyclick'
p1131
ag137
aaa(lp1132
S'safesearch.avira.com'
p1133
a(lp1134
g21
aaa(lp1135
S'www.kvasir.no'
p1136
a(lp1137
S'Kvasir'
p1138
aS'q'
aS'alle?q={k}'
p1139
aaa(lp1140
S'ys.mirostart.com'
p1141
a(lp1142
g213
aS'q'
aaa(lp1143
S'www.mozbot.com'
p1144
a(lp1145
g730
aaa(lp1146
S'www.kataweb.it'
p1147
a(lp1148
S'Kataweb'
p1149
aS'q'
aaa(lp1150
S'www.searchy.co.uk'
p1151
a(lp1152
S'Searchy'
p1153
aS'q'
aS'index.html?q={k}'
p1154
aaa(lp1155
S'aolsearch.aol.com'
p1156
a(lp1157
g67
aaa(lp1158
S'smart.delfi.lv'
p1159
a(lp1160
S'Delfi lv'
p1161
aS'q'
ag943
aaa(lp1162
S'www.fastweb.it'
p1163
a(lp1164
g82
aaa(lp1165
S'www.hooseek.com'
p1166
a(lp1167
S'Hooseek'
p1168
aS'recherche'
p1169
aS'web?recherche={k}'
p1170
aaa(lp1171
S'www.exalead.com'
p1172
a(lp1173
S'Exalead'
p1174
aaa(lp1175
S'images.search.biglobe.ne.jp'
p1176
a(lp1177
S'Biglobe Images'
p1178
aS'q'
ag1104
aaa(lp1179
S'www.sputnik.ru'
p1180
a(lp1181
S'Sputnik'
p1182
aS'q'
ag300
aaa(lp1183
S'www.mister-wong.de'
p1184
a(lp1185
S'Mister Wong'
p1186
aaa(lp1187
S'search.mywebsearch.com'
p1188
a(lp1189
g1073
aaa(lp1190
S'www.mysearch.com'
p1191
a(lp1192
g1073
a(lp1193
S'searchfor'
p1194
aS'searchFor'
p1195
aaS'search/Ajmain.jhtml?searchfor={k}'
p1196
aaa(lp1197
S'wsdsold.infospace.com'
p1198
a(lp1199
g55
ag448
aS'pemonitorhosted/ws/results/Web/{k}/1/417/TopNavigation/Source/'
p1200
aaa(lp1201
S'www1.austronaut.at'
p1202
a(lp1203
g754
aaa(lp1204
S'metager.de'
p1205
a(lp1206
g837
aaa(lp1207
S'ixquick.de'
p1208
a(lp1209
g165
aaa(lp1210
S'images.ask.com'
p1211
a(lp1212
g21
aaa(lp1213
S'search.offerbox.com'
p1214
a(lp1215
g213
aS'q'
aaa(lp1216
S'www.baidu.com'
p1217
a(lp1218
g100
a(lp1219
g324
ag325
ag131
aag326
a(lp1220
g328
ag329
aaaa(lp1221
S'ko.search.need2find.com'
p1222
a(lp1223
S'Needtofind'
p1224
ag1194
aS'search/AJmain.jhtml?searchfor={k}'
p1225
aaa(lp1226
S'searches.f-secure.com'
p1227
a(lp1228
g82
ag105
ag198
aaa(lp1229
S'scholar.google.com'
p1230
a(lp1231
S'Google Scholar'
p1232
aS'q'
aS'scholar?q={k}'
p1233
aaa(lp1234
S'espanol.images.yahoo.com'
p1235
a(lp1236
g91
aaa(lp1237
S'eu.ixquick.com'
p1238
a(lp1239
g165
aaa(lp1240
S'search.hiyo.com'
p1241
a(lp1242
g82
aaa(lp1243
S'search.yam.com'
p1244
a(lp1245
S'Yam'
p1246
aS'k'
aS'Search/Web/?SearchType=web&k={k}'
p1247
aaa(lp1248
S'search1-1.free.fr'
p1249
a(lp1250
g636
aaa(lp1251
S'm.baidu.com'
p1252
a(lp1253
g100
a(lp1254
g324
ag325
ag131
aag326
a(lp1255
g328
ag329
aaaa(lp1256
S'forestle.mobi'
p1257
a(lp1258
g901
aaa(lp1259
S'sucheaol.aol.de'
p1260
a(lp1261
g67
aaa(lp1262
S'ki.mysearch.myway.com'
p1263
a(lp1264
g1073
aaa(lp1265
S'suche.aol.de'
p1266
a(lp1267
g67
aaa(lp1268
S'ask.com'
p1269
a(lp1270
g21
a(lp1271
S'ask'
p1272
aS'q'
ag1194
aag339
aaa(lp1273
S'www.gigablast.com'
p1274
a(lp1275
S'Gigablast'
p1276
aS'q'
ag300
aaa(lp1277
S'googel.com'
p1278
a(lp1279
g82
aaa(lp1280
S'apollo7.de'
p1281
a(lp1282
S'Apollo7'
p1283
ag105
aS'a7db/index.php?query={k}&de_sharelook=true&de_bing=true&de_witch=true&de_google=true&de_yahoo=true&de_lycos=true'
p1284
aaa(lp1285
S'encrypted.google.com'
p1286
a(lp1287
S'Google SSL'
p1288
aS'q'
ag300
aaa(lp1289
S'www.aolrecherches.aol.fr'
p1290
a(lp1291
g67
aaa(lp1292
S'lo.st'
p1293
a(lp1294
S'Lo.st'
p1295
aS'x_query'
p1296
aS'cgi-bin/eolost.cgi?x_query={k}'
p1297
aaa(lp1298
S'www.fireball.de'
p1299
a(lp1300
S'Fireball'
p1301
aS'q'
aS'ajax.asp?q={k}'
p1302
aaa(lp1303
S'www.walhello.info'
p1304
a(lp1305
g528
ag406
aS'search?key={k}'
p1306
aaa(lp1307
S'images.search.conduit.com'
p1308
a(lp1309
g74
aaa(lp1310
S's2.us.ixquick.com'
p1311
a(lp1312
g165
aaa(lp1313
S'find.tdc.dk'
p1314
a(lp1315
g82
aaa(lp1316
S'search-dyn.tiscali.it'
p1317
a(lp1318
g1112
aaa(lp1319
S'www2.dasoertliche.de'
p1320
a(lp1321
S'DasOertliche'
p1322
a(lp1323
S'ph'
p1324
ag131
aaaa(lp1325
S'search.excite.es'
p1326
a(lp1327
g112
aaa(lp1328
S'www.delta-search.com'
p1329
a(lp1330
g82
aS'q'
aaa(lp1331
S'search.alot.com'
p1332
a(lp1333
g82
aaa(lp1334
S'go.mail.ru'
p1335
a(lp1336
S'Mailru'
p1337
aS'q'
aS'search?rch=e&q={k}'
p1338
a(lp1339
g328
ag991
aaaa(lp1340
S'www.weborama.fr'
p1341
a(lp1342
S'weborama'
p1343
aS'QUERY'
p1344
aaa(lp1345
S'www.optuszoo.com.au'
p1346
a(lp1347
g82
aaa(lp1348
S'ca.zapmeta.com'
p1349
a(lp1350
g417
aaa(lp1351
S'www.mozbot.co.uk'
p1352
a(lp1353
g730
aaa(lp1354
S'wap.sogou.com'
p1355
a(lp1356
g792
ag137
aaa(lp1357
S'buscador.terra.es'
p1358
a(lp1359
g659
ag105
aS'Default.aspx?source=Search&query={k}'
p1360
aaa(lp1361
S'startgoogle.startpagina.nl'
p1362
a(lp1363
S'Startpagina (Google)'
p1364
aS'q'
ag96
aaa(lp1365
S'p.zhongsou.com'
p1366
a(lp1367
S'Zhongsou'
p1368
aS'w'
aS'p?w={k}'
p1369
aaa(lp1370
S'gppgle.{}'
p1371
a(lp1372
g82
aaa(lp1373
S'yahoo.com'
p1374
a(lp1375
g213
aaa(lp1376
S'www.abacho.es'
p1377
a(lp1378
g123
aaa(lp1379
S'darkoogle.com'
p1380
a(lp1381
g82
aaa(lp1382
S'search.hp.my.aol.de'
p1383
a(lp1384
g67
aaa(lp1385
S'www.qbyrd.com'
p1386
a(lp1387
g21
aaa(lp1388
S'www.so-net.ne.jp'
p1389
a(lp1390
S'So-net'
p1391
ag105
aS'search/web/?query={k}'
p1392
aaa(lp1393
S'search.daum.net'
p1394
a(lp1395
S'Daum'
p1396
aS'q'
ag300
aaa(lp1397
S'web.toile.com'
p1398
a(lp1399
S'La Toile Du Qu\xc3\xa9bec (Google)'
p1400
aaa(lp1401
S'nortonsafe.search.ask.com'
p1402
a(lp1403
g21
aaa(lp1404
S'www.excite.co.jp'
p1405
a(lp1406
g112
ag679
aS'search.gw?search={k}'
p1407
aS'SHIFT_JIS'
p1408
aaa(lp1409
S'bing.com/images/search'
p1410
a(lp1411
S'Bing Images'
p1412
a(lp1413
S'q'
aS'Q'
aag96
aaa(lp1414
S'search.incredimail.com'
p1415
a(lp1416
g82
aaa(lp1417
S'{}.bing.com/images/search'
p1418
a(lp1419
g1412
aaa(lp1420
S'www.mister-wong.com'
p1421
a(lp1422
g1186
aS'keywords'
p1423
aS'search/?keywords={k}'
p1424
aaa(lp1425
S'gfsoso.com'
p1426
a(lp1427
g82
aS'q'
aaa(lp1428
S'www.zxuso.com'
p1429
a(lp1430
S'Zxuso'
p1431
ag324
aS'ri/?wd={k}'
p1432
aaa(lp1433
S'www.yasni.ch'
p1434
a(lp1435
g440
aaa(lp1436
S'meta.rrzn.uni-hannover.de'
p1437
a(lp1438
g837
aS'eingabe'
p1439
aS'meta/cgi-bin/meta.ger1?eingabe={k}'
p1440
aaa(lp1441
S'www.goyellow.de'
p1442
a(lp1443
S'GoYellow.de'
p1444
aS'MDN'
p1445
aaa(lp1446
S'www.euroseek.com'
p1447
a(lp1448
S'Euroseek'
p1449
aS'string'
p1450
aS'system/search.cgi?string={k}'
p1451
aaa(lp1452
S'www.ask.co.uk'
p1453
a(lp1454
g21
aaa(lp1455
S'ricercaimmagini.virgilio.it'
p1456
a(lp1457
g294
aaa(lp1458
S'toppreise.ch'
p1459
a(lp1460
g192
aNaNag193
aaa(lp1461
S'www.dasoertliche.de'
p1462
a(lp1463
g1322
ag131
aaa(lp1464
S'cade.yahoo.com'
p1465
a(lp1466
g213
aaa(lp1467
S'recherche.aol.fr'
p1468
a(lp1469
g67
aaa(lp1470
S'www.meinestadt.de'
p1471
a(lp1472
S'Meinestadt.de'
p1473
ag859
aaa(lp1474
S'search.earthlink.net'
p1475
a(lp1476
S'Earthlink'
p1477
aS'q'
ag300
aaa(lp1478
S'search.magentic.com'
p1479
a(lp1480
g55
aS'q'
aaa(lp1481
S'www.gulesider.no'
p1482
a(lp1483
S'Gule Sider'
p1484
aS'q'
aaa(lp1485
S'www.sogou.com'
p1486
a(lp1487
g792
ag105
aS'web?query={k}'
p1488
ag329
aaa(lp1489
S'altavista.de'
p1490
a(lp1491
g30
aaa(lp1492
S'suche.freenet.de'
p1493
a(lp1494
S'Freenet'
p1495
a(lp1496
g105
ag702
aaS'suche/?query={k}'
p1497
aaa(lp1498
S'tr.zapmeta.com'
p1499
a(lp1500
g417
aaa(lp1501
S'search.fbdownloader.com'
p1502
a(lp1503
g55
aaa(lp1504
S'search4.incredimail.com'
p1505
a(lp1506
g82
aaa(lp1507
S'www.vindex.nl'
p1508
a(lp1509
S'Vindex'
p1510
ag289
aS'/web?search_for={k}'
p1511
aaa(lp1512
S'www1.search-results.com'
p1513
a(lp1514
g21
aaa(lp1515
S'www.lookany.com'
p1516
a(lp1517
S'LookAny'
p1518
aS'/(?:search|images|videos)\\/([^\\/]+)/'
p1519
aaa(lp1520
S'eo.st'
p1521
a(lp1522
S'eo'
p1523
ag1296
ag1297
aaa(lp1524
S'm.haosou.com'
p1525
a(lp1526
g710
aS'q'
ag458
aaa(lp1527
S'videosearch.nifty.com'
p1528
a(lp1529
S'Nifty Videos'
p1530
ag131
ag132
aaa(lp1531
S'search.searchcompletion.com'
p1532
a(lp1533
g55
aS'q'
aaa(lp1534
S'busca.uol.com.br'
p1535
a(lp1536
S'uol.com.br'
p1537
aS'q'
aS'/web/?q={k}'
p1538
aaa(lp1539
S'avira.search.ask.com'
p1540
a(lp1541
g21
aaa(lp1542
S'www.facebook.com'
p1543
a(lp1544
S'Facebook'
p1545
aS'q'
ag767
aaa(lp1546
S'search.rr.com'
p1547
a(lp1548
S'Road Runner'
p1549
aS'q'
ag96
aaa(lp1550
S'lemoteur.ke.voila.fr'
p1551
a(lp1552
g875
ag131
aS'?kw={k}'
p1553
aaa(lp1554
S'www.witch.de'
p1555
a(lp1556
S'Witch'
p1557
ag679
aS'search-result.php?cn=0&search={k}'
p1558
aaa(lp1559
S'images.yandex.com'
p1560
a(lp1561
g999
aaa(lp1562
S'search.vindex.nl'
p1563
a(lp1564
g1510
aaa(lp1565
S'mws.ask.com'
p1566
a(lp1567
g21
aaa(lp1568
S'uk.zapmeta.com'
p1569
a(lp1570
g417
aaa(lp1571
S'www.latne.lv'
p1572
a(lp1573
S'Latne'
p1574
aS'q'
aS'siets.php?q={k}'
p1575
aaa(lp1576
S'google.com/custom'
p1577
a(lp1578
g151
aaa(lp1579
S'search.naver.com'
p1580
a(lp1581
S'Naver'
p1582
ag105
aS'search.naver?query={k}'
p1583
aaa(lp1584
S'suche.info'
p1585
a(lp1586
S'Suche.info'
p1587
ag702
aS'suche.php?Keywords={k}'
p1588
aaa(lp1589
S'qc.yahoo.com'
p1590
a(lp1591
g213
aaa(lp1592
S'web.gougou.com'
p1593
a(lp1594
g100
ag679
aS'search?search={k}'
p1595
aaa(lp1596
S'search1.incredimail.com'
p1597
a(lp1598
g82
aaa(lp1599
S'\n         * Other InfoSpace powered metasearches are handled in Common::extractSearchEngineInformationFromUrl()\n         *\n         * This includes sites such as:\n         * - search.nation.com\n         * - ws.copernic.com\n         * - result.iminent.com\n         www.google.interia.pl'
p1600
a(lp1601
S'Interia'
p1602
aS'q'
aS'szukaj?q={k}'
p1603
aaa(lp1604
S'www.tr.abacho.com'
p1605
a(lp1606
g123
aaa(lp1607
S'www.skynet.be'
p1608
a(lp1609
S'Skynet'
p1610
aS'q'
aS'services/recherche/google?q={k}'
p1611
aaa(lp1612
S'zoohoo.cz'
p1613
a(lp1614
S'Zoohoo'
p1615
aS'q'
ag96
ag681
aaa(lp1616
S'google.com/cse'
p1617
a(lp1618
g151
a(lp1619
S'q'
ag105
aaaa(lp1620
S'bing.com'
p1621
a(lp1622
g17
a(lp1623
S'q'
aS'Q'
aag300
aaa(lp1624
S'www.yougoo.fr'
p1625
a(lp1626
S'YouGoo'
p1627
aS'q'
aS'?cx=search&q={k}'
p1628
aaa(lp1629
S'int.search-results.com'
p1630
a(lp1631
g21
aaa(lp1632
S'search.handycafe.com'
p1633
a(lp1634
g55
aS'q'
aaa(lp1635
S'sp-image.search.auone.jp'
p1636
a(lp1637
S'auone Images'
p1638
aS'q'
ag96
aaa(lp1639
S'search.excite.it'
p1640
a(lp1641
g112
aS'q'
aS'web/?q={k}'
p1642
aaa(lp1643
S'www.cercato.it'
p1644
a(lp1645
g213
aS'q'
aaa(lp1646
S'search.aol.com'
p1647
a(lp1648
g67
a(lp1649
g105
aS'q'
aaS'aol/search?q={k}'
p1650
aaa(lp1651
S'{}.m.sm.cn'
p1652
a(lp1653
g457
aS'q'
ag458
aaa(lp1654
S'www.walhello.com'
p1655
a(lp1656
g528
aaa(lp1657
S'videa.seznam.cz'
p1658
a(lp1659
S'Seznam Videa'
p1660
aS'q'
ag96
aaa(lp1661
S'www.abacho.it'
p1662
a(lp1663
g123
aaa(lp1664
S'yandex.{}'
p1665
a(lp1666
g119
aaa(lp1667
S'images.google.{}'
p1668
a(lp1669
S'Google Images'
p1670
aaa(lp1671
S'www1.baidu.com'
p1672
a(lp1673
g100
aaa(lp1674
S'google.com'
p1675
a(lp1676
g82
aS'q'
ag300
aaa(lp1677
S'suchet2.aol.de'
p1678
a(lp1679
g67
aaa(lp1680
S'suche.web.de'
p1681
a(lp1682
S'Web.de'
p1683
a(lp1684
S'su'
p1685
aS'q'
aaS'search/web/?su={k}'
p1686
aaa(lp1687
S'www.twingly.com'
p1688
a(lp1689
S'Twingly'
p1690
aS'q'
ag300
aaa(lp1691
S'www.startsiden.no'
p1692
a(lp1693
S'Startsiden'
p1694
aS'q'
aS'sok/index.html?q={k}'
p1695
aaa(lp1696
S'yz.m.sm.cn'
p1697
a(lp1698
g457
aS'q'
ag458
aaa(lp1699
S'junglekey.com'
p1700
a(lp1701
S'Jungle Key'
p1702
ag105
aS'search.php?query={k}&type=web&lang=en'
p1703
aaa(lp1704
S'www.searchcanvas.com'
p1705
a(lp1706
S'SearchCanvas'
p1707
aS'q'
ag339
aaa(lp1708
S'www.search.com'
p1709
a(lp1710
S'Search.com'
p1711
aS'q'
ag300
aaa(lp1712
S'www.baidu.co.th'
p1713
a(lp1714
g100
aaa(lp1715
S'www.cuil.com'
p1716
a(lp1717
S'Cuil'
p1718
aS'q'
ag300
aaa(lp1719
S'yandex.ru'
p1720
a(lp1721
g119
ag989
ag1000
aaa(lp1722
S'int.ask.com'
p1723
a(lp1724
g21
aaa(lp1725
S'www.arianna.com'
p1726
a(lp1727
g887
aaa(lp1728
S'm.suche.web.de'
p1729
a(lp1730
g1683
aaa(lp1731
S'search.centrum.cz'
p1732
a(lp1733
g304
aS'q'
ag96
aaa(lp1734
S'yellowmap.de'
p1735
a(lp1736
S'Yellowmap'
p1737
aS' '
aaa(lp1738
S'www2.google.com'
p1739
a(lp1740
g82
aaa(lp1741
S'search.leonardo.it'
p1742
a(lp1743
g82
aaa(lp1744
S'searches.safehomepage.com'
p1745
a(lp1746
g82
aS'q'
aaa(lp1747
S'news.baidu.com'
p1748
a(lp1749
g100
aaa(lp1750
S'www.zoeken.nl'
p1751
a(lp1752
S'Zoeken'
p1753
aS'q'
ag96
aaa(lp1754
S'ms114.mysearch.com'
p1755
a(lp1756
g1073
aaa(lp1757
S'chercherfr.aguea.com'
p1758
a(lp1759
S'Aguea'
p1760
aS'q'
aS's.py?q={k}'
p1761
aaa(lp1762
S'editors.dmoz.org'
p1763
a(lp1764
S'dmoz'
p1765
aaa(lp1766
S'www.charter.net'
p1767
a(lp1768
S'Charter'
p1769
aS'q'
ag444
aaa(lp1770
S'dmoz.org'
p1771
a(lp1772
g1765
ag679
aaa(lp1773
S'www1.delta-search.com'
p1774
a(lp1775
g82
aS'q'
aaa(lp1776
S'{}.images.yahoo.com'
p1777
a(lp1778
g91
aaa(lp1779
S'searchresults.verizon.com'
p1780
a(lp1781
g82
aaa(lp1782
S'search.icq.com'
p1783
a(lp1784
g609
aaa(lp1785
S'www.toppreise.ch'
p1786
a(lp1787
g192
ag679
aS'index.php?search={k}'
p1788
ag193
aaa(lp1789
S'www.exalead.fr'
p1790
a(lp1791
g1174
aS'q'
aS'search/results?q={k}'
p1792
aaa(lp1793
S'search.ask.com'
p1794
a(lp1795
g21
aaa(lp1796
S'search.incredibar.com'
p1797
a(lp1798
g82
aS'q'
ag170
aaa(lp1799
S'brisbane.t-online.de'
p1800
a(lp1801
g498
aaa(lp1802
S's5.us.ixquick.com'
p1803
a(lp1804
g165
aaa(lp1805
S's3.metacrawler.de'
p1806
a(lp1807
g761
aaa(lp1808
S'www.toolbarhome.com'
p1809
a(lp1810
g436
aS'q'
aS'search.aspx?q={k}'
p1811
aaa(lp1812
S'fi.zapmeta.com'
p1813
a(lp1814
g417
aaa(lp1815
S'wwwgoogle.{}'
p1816
a(lp1817
g82
aaa(lp1818
S'www.altavista.com'
p1819
a(lp1820
g30
aS'q'
aS'web/results?q={k}'
p1821
aaa(lp1822
S'www.alltheweb.com'
p1823
a(lp1824
S'AllTheWeb'
p1825
aS'q'
ag300
aaa(lp1826
S'www.firstsfind.com'
p1827
a(lp1828
S'Firstsfind'
p1829
ag746
aaa(lp1830
S'www.allesklar.at'
p1831
a(lp1832
g858
aaa(lp1833
S's2.metacrawler.de'
p1834
a(lp1835
g761
aaa(lp1836
S'search.myway.com'
p1837
a(lp1838
g1073
aaa(lp1839
S'www.123people.com'
p1840
a(lp1841
g1077
a(lp1842
g7
aS'search_term'
p1843
aag8
aaa(lp1844
S'so.360.cn'
p1845
a(lp1846
g710
aS'q'
ag458
a(lp1847
g328
ag329
aaaa(lp1848
S'www.abacho.de'
p1849
a(lp1850
g123
aS'q'
aS'suche?q={k}'
p1851
aaa(lp1852
S'ricercavideo.virgilio.it'
p1853
a(lp1854
g294
aaa(lp1855
S'search.smt.docomo.ne.jp'
p1856
a(lp1857
g82
ag83
aaa(lp1858
S'ts2.m.sm.cn'
p1859
a(lp1860
g457
aS'q'
ag458
aaa(lp1861
S'holmes.ge'
p1862
a(lp1863
S'Holmes'
p1864
aS'q'
aS'search.htm?q={k}'
p1865
aaa(lp1866
S'images.yandex.{}'
p1867
a(lp1868
g999
aaa(lp1869
S'www.yasni.at'
p1870
a(lp1871
g440
aaa(lp1872
S'www3.zoek.nl'
p1873
a(lp1874
S'Zoek'
p1875
aS'q'
aaa(lp1876
S'www.sharelook.fr'
p1877
a(lp1878
S'Sharelook'
p1879
ag137
aaa(lp1880
S'google.{}/custom'
p1881
a(lp1882
g151
aaa(lp1883
S'blogsearch.google.{}'
p1884
a(lp1885
S'Google Blogsearch'
p1886
aaa(lp1887
S'infospace.com'
p1888
a(lp1889
g55
aS'q'
aS'/search/web?q={k}'
p1890
aaa(lp1891
S'www.highbeam.com'
p1892
a(lp1893
S'HighBeam'
p1894
aS'q'
aS'Search.aspx?q={k}'
p1895
aaa(lp1896
S'metacrawler.com'
p1897
a(lp1898
g55
aaa(lp1899
S'www.searchmobileonline.com'
p1900
a(lp1901
g55
aS'q'
aaa(lp1902
S'search.bluewin.ch'
p1903
a(lp1904
S'Bluewin'
p1905
a(lp1906
S'searchTerm'
p1907
aS'q'
aaS'v2/index.php?q={k}'
p1908
aaa(lp1909
S'dogpile.com'
p1910
a(lp1911
g55
aaa(lp1912
S'iwon.ask.com'
p1913
a(lp1914
g21
aaa(lp1915
S'find.web.aol.com'
p1916
a(lp1917
g67
aaa(lp1918
S'suche.1und1.de'
p1919
a(lp1920
g82
aS'q'
ag339
aaa(lp1921
S'isearch.babylon.com'
p1922
a(lp1923
g55
aS'q'
aaa(lp1924
S's4.us.ixquick.com'
p1925
a(lp1926
g165
aaa(lp1927
S'www.toile.com'
p1928
a(lp1929
g1400
aS'q'
ag300
aaa(lp1930
S'wow.com'
p1931
a(lp1932
g82
aaa(lp1933
S'www.yatedo.fr'
p1934
a(lp1935
g537
aaa(lp1936
S'suche.aolsvc.de'
p1937
a(lp1938
g67
aaa(lp1939
S'start.iplay.com'
p1940
a(lp1941
S'I-play'
p1942
aS'q'
aS'searchresults.aspx?q={k}'
p1943
aaa(lp1944
S'{}.wow.com'
p1945
a(lp1946
g82
aaa(lp1947
S'searches.vi-view.com'
p1948
a(lp1949
g55
aaa(lp1950
S'apollo.lv/portal/search/'
p1951
a(lp1952
S'Apollo lv'
p1953
aS'q'
aS'?cof=FORID%3A11&q={k}&search_where=www'
p1954
aaa(lp1955
S'search.snap.do'
p1956
a(lp1957
S'Snap.do'
p1958
aS'q'
ag96
aaa(lp1959
S'search1-2.free.fr'
p1960
a(lp1961
g636
aaa(lp1962
S'search.peoplepc.com'
p1963
a(lp1964
S'PeoplePC'
p1965
aS'q'
ag300
aaa(lp1966
S'blogsearch.google.com'
p1967
a(lp1968
g1886
aS'q'
aS'blogsearch?q={k}'
p1969
aaa(lp1970
S'de.toppreise.ch'
p1971
a(lp1972
g192
aNaNag193
aaa(lp1973
S'searchqu.com'
p1974
a(lp1975
g21
aaa(lp1976
S'technorati.com'
p1977
a(lp1978
S'Technorati'
p1979
aS'q'
aS'search?return=sites&authority=all&q={k}'
p1980
aaa(lp1981
S'www.monstercrawler.com'
p1982
a(lp1983
S'Monstercrawler'
p1984
ag746
aaa(lp1985
S'news.google.com'
p1986
a(lp1987
g38
aS'q'
aaa(lp1988
S'googlesyndicatedsearch.com'
p1989
a(lp1990
S'Google syndicated search'
p1991
aS'q'
aaa(lp1992
S'search.v9.com'
p1993
a(lp1994
g55
aS'q'
aaa(lp1995
S'ar.zapmeta.com'
p1996
a(lp1997
g417
aaa(lp1998
S'buscador.terra.cl'
p1999
a(lp2000
g659
aaa(lp2001
S'forestle.org'
p2002
a(lp2003
g901
aS'q'
ag170
aaa(lp2004
S'image.search.yahoo.co.jp'
p2005
a(lp2006
S'Yahoo! Japan Images'
p2007
aS'p'
ag252
aaa(lp2008
S'junglekey.fr'
p2009
a(lp2010
g1702
aaa(lp2011
S'friendfeed.com'
p2012
a(lp2013
S'FriendFeed'
p2014
aS'q'
ag300
aaa(lp2015
S'scholar.google.{}'
p2016
a(lp2017
g1232
aaa(lp2018
S'webcrawler.com'
p2019
a(lp2020
g55
aaa(lp2021
S'ms146.mysearch.com'
p2022
a(lp2023
g1073
aaa(lp2024
S'searchassist.babylon.com'
p2025
a(lp2026
g782
aaa(lp2027
S'sm.aport.ru'
p2028
a(lp2029
S'Aport'
p2030
aS'r'
aS'search?r={k}'
p2031
aaa(lp2032
S'aim.search.aol.com'
p2033
a(lp2034
g67
aaa(lp2035
S'{}.search-results.com'
p2036
a(lp2037
g21
aaa(lp2038
S'ixquick.com'
p2039
a(lp2040
g165
ag105
aaa(lp2041
S'www.picsearch.com'
p2042
a(lp2043
S'Picsearch'
p2044
aS'q'
aS'index.cgi?q={k}'
p2045
aaa(lp2046
S'blogs.icerocket.com'
p2047
a(lp2048
S'Icerocket'
p2049
aS'q'
ag300
aaa(lp2050
S'www.qualigo.de'
p2051
a(lp2052
g34
aaa(lp2053
S'search3.incredimail.com'
p2054
a(lp2055
g82
aaa(lp2056
S'search.freecause.com'
p2057
a(lp2058
S'FreeCause'
p2059
aS'p'
ag385
aaa(lp2060
S'images.google.com'
p2061
a(lp2062
g1670
aS'q'
aS'images?q={k}'
p2063
aaa(lp2064
S'tattoodle.com'
p2065
a(lp2066
g55
aaa(lp2067
S'web.canoe.ca'
p2068
a(lp2069
S'Canoe.ca'
p2070
aS'q'
ag300
aaa(lp2071
S'maps.google.{}'
p2072
a(lp2073
g389
aaa(lp2074
S'websearch.rakuten.co.jp'
p2075
a(lp2076
S'Rakuten'
p2077
ag187
aS'WebIS?qt={k}'
p2078
aaa(lp2079
S'www.findhurtig.dk'
p2080
a(lp2081
S'Findhurtig'
p2082
aS'q'
ag339
aaa(lp2083
S'home.speedbit.com'
p2084
a(lp2085
g55
aS'q'
aaa(lp2086
S'search.aol.it'
p2087
a(lp2088
g67
aaa(lp2089
S'search.yahoo.com'
p2090
a(lp2091
g213
a(lp2092
S'p'
aS'q'
aag252
aaa(lp2093
S'rpmfind.net'
p2094
a(lp2095
S'rpmfind'
p2096
ag105
aS'linux/rpm2html/search.php?query={k}'
p2097
aaa(lp2098
S'images.{}.ask.com'
p2099
a(lp2100
g21
aaa(lp2101
S'cade.images.yahoo.com'
p2102
a(lp2103
g91
aaa(lp2104
S'hledani.tiscali.cz'
p2105
a(lp2106
g1112
ag105
aaa(lp2107
S'bg.setooz.com'
p2108
a(lp2109
g377
ag105
ag198
aaa(lp2110
S'www.gooofullsearch.com'
p2111
a(lp2112
g82
ag702
aaa(lp2113
S'searches3.globososo.com'
p2114
a(lp2115
g55
aaa(lp2116
S'www.trouvez.com'
p2117
a(lp2118
S'Trouvez.com'
p2119
ag105
aaa(lp2120
S'no.zapmeta.com'
p2121
a(lp2122
g417
aaa(lp2123
S'fr2.rpmfind.net'
p2124
a(lp2125
g2096
aaa(lp2126
S'www.zapmeta.com'
p2127
a(lp2128
g417
a(lp2129
S'q'
ag105
aag96
aaa(lp2130
S'www.lemoteur.fr'
p2131
a(lp2132
g921
aaa(lp2133
S'isearch.avg.com'
p2134
a(lp2135
g82
aaa(lp2136
S'www.acoon.de'
p2137
a(lp2138
S'Acoon'
p2139
aS'begriff'
p2140
aS'cgi-bin/search.exe?begriff={k}'
p2141
aaa(lp2142
S'aolbusqueda.aol.com.mx'
p2143
a(lp2144
g67
aaa(lp2145
S'nova.rambler.ru'
p2146
a(lp2147
S'Rambler'
p2148
a(lp2149
g105
ag859
aag198
aaa(lp2150
S'zhidao.baidu.com'
p2151
a(lp2152
g100
aaa(lp2153
S's8-eu.ixquick.com'
p2154
a(lp2155
g165
aaa(lp2156
S'www.yasni.co.uk'
p2157
a(lp2158
g440
aaa(lp2159
S'www.hit-parade.com'
p2160
a(lp2161
g576
aaa(lp2162
S'search.juno.com'
p2163
a(lp2164
g82
ag105
aaa(lp2165
S's2-eu4.ixquick.com'
p2166
a(lp2167
g165
aaa(lp2168
S'wwwgoogle.com'
p2169
a(lp2170
g82
aaa(lp2171
S'www.qualigo.nl'
p2172
a(lp2173
g34
aaatRp2174
.